
Lab5.elf:     file format elf32-avr

Sections:
Idx Name          Size      VMA       LMA       File off  Algn
  0 .data         00000246  00800100  00002d38  00002dcc  2**0
                  CONTENTS, ALLOC, LOAD, DATA
  1 .text         00002d38  00000000  00000000  00000094  2**1
                  CONTENTS, ALLOC, LOAD, READONLY, CODE
  2 .bss          00000195  00800346  00800346  00003012  2**0
                  ALLOC
  3 .debug_aranges 000000e0  00000000  00000000  00003012  2**0
                  CONTENTS, READONLY, DEBUGGING
  4 .debug_pubnames 000005a0  00000000  00000000  000030f2  2**0
                  CONTENTS, READONLY, DEBUGGING
  5 .debug_info   0000261c  00000000  00000000  00003692  2**0
                  CONTENTS, READONLY, DEBUGGING
  6 .debug_abbrev 00000d66  00000000  00000000  00005cae  2**0
                  CONTENTS, READONLY, DEBUGGING
  7 .debug_line   00001a6e  00000000  00000000  00006a14  2**0
                  CONTENTS, READONLY, DEBUGGING
  8 .debug_frame  00000470  00000000  00000000  00008484  2**2
                  CONTENTS, READONLY, DEBUGGING
  9 .debug_str    0000087f  00000000  00000000  000088f4  2**0
                  CONTENTS, READONLY, DEBUGGING
 10 .debug_loc    00001297  00000000  00000000  00009173  2**0
                  CONTENTS, READONLY, DEBUGGING

Disassembly of section .text:

00000000 <__vectors>:
       0:	0c 94 76 00 	jmp	0xec	; 0xec <__ctors_end>
       4:	0c 94 95 00 	jmp	0x12a	; 0x12a <__bad_interrupt>
       8:	0c 94 95 00 	jmp	0x12a	; 0x12a <__bad_interrupt>
       c:	0c 94 95 00 	jmp	0x12a	; 0x12a <__bad_interrupt>
      10:	0c 94 95 00 	jmp	0x12a	; 0x12a <__bad_interrupt>
      14:	0c 94 95 00 	jmp	0x12a	; 0x12a <__bad_interrupt>
      18:	0c 94 95 00 	jmp	0x12a	; 0x12a <__bad_interrupt>
      1c:	0c 94 95 00 	jmp	0x12a	; 0x12a <__bad_interrupt>
      20:	0c 94 95 00 	jmp	0x12a	; 0x12a <__bad_interrupt>
      24:	0c 94 95 00 	jmp	0x12a	; 0x12a <__bad_interrupt>
      28:	0c 94 95 00 	jmp	0x12a	; 0x12a <__bad_interrupt>
      2c:	0c 94 95 00 	jmp	0x12a	; 0x12a <__bad_interrupt>
      30:	0c 94 95 00 	jmp	0x12a	; 0x12a <__bad_interrupt>
      34:	0c 94 97 00 	jmp	0x12e	; 0x12e <__vector_13>
      38:	0c 94 95 00 	jmp	0x12a	; 0x12a <__bad_interrupt>
      3c:	0c 94 95 00 	jmp	0x12a	; 0x12a <__bad_interrupt>
      40:	0c 94 3a 09 	jmp	0x1274	; 0x1274 <__vector_16>
      44:	0c 94 95 00 	jmp	0x12a	; 0x12a <__bad_interrupt>
      48:	0c 94 95 00 	jmp	0x12a	; 0x12a <__bad_interrupt>
      4c:	0c 94 95 00 	jmp	0x12a	; 0x12a <__bad_interrupt>
      50:	0c 94 fc 03 	jmp	0x7f8	; 0x7f8 <__vector_20>
      54:	0c 94 88 03 	jmp	0x710	; 0x710 <__vector_21>
      58:	0c 94 95 00 	jmp	0x12a	; 0x12a <__bad_interrupt>
      5c:	0c 94 95 00 	jmp	0x12a	; 0x12a <__bad_interrupt>
      60:	0c 94 95 00 	jmp	0x12a	; 0x12a <__bad_interrupt>
      64:	0c 94 95 00 	jmp	0x12a	; 0x12a <__bad_interrupt>
      68:	0c 94 95 00 	jmp	0x12a	; 0x12a <__bad_interrupt>
      6c:	0c 94 95 00 	jmp	0x12a	; 0x12a <__bad_interrupt>
      70:	0c 94 95 00 	jmp	0x12a	; 0x12a <__bad_interrupt>
      74:	0c 94 95 00 	jmp	0x12a	; 0x12a <__bad_interrupt>
      78:	0c 94 95 00 	jmp	0x12a	; 0x12a <__bad_interrupt>
      7c:	0c 94 95 00 	jmp	0x12a	; 0x12a <__bad_interrupt>
      80:	0c 94 95 00 	jmp	0x12a	; 0x12a <__bad_interrupt>
      84:	0c 94 95 00 	jmp	0x12a	; 0x12a <__bad_interrupt>
      88:	0c 94 95 00 	jmp	0x12a	; 0x12a <__bad_interrupt>

0000008c <LcdCustomChar>:
      8c:	00 1f 00 00 00 00 1f 00 00 1f 10 10 10 10 1f 00     ................
      9c:	00 1f 18 18 18 18 1f 00 00 1f 1c 1c 1c 1c 1f 00     ................
      ac:	00 1f 1e 1e 1e 1e 1f 00 00 1f 1f 1f 1f 1f 1f 00     ................
      bc:	03 07 0f 1f 0f 07 03 00 18 1c 1e 1f 1e 1c 18 00     ................

000000cc <LCD_line1>:
      cc:	43 75 72 72 65 6e 74 3a 00 00                       Current:..

000000d6 <LCD_line2>:
      d6:	44 65 73 69 72 65 64 3a 00 00                       Desired:..

000000e0 <__c.1988>:
      e0:	63 64 69 6e 6f 70 73 75 78 58 5b 00                 cdinopsuxX[.

000000ec <__ctors_end>:
      ec:	11 24       	eor	r1, r1
      ee:	1f be       	out	0x3f, r1	; 63
      f0:	cf ef       	ldi	r28, 0xFF	; 255
      f2:	d0 e4       	ldi	r29, 0x40	; 64
      f4:	de bf       	out	0x3e, r29	; 62
      f6:	cd bf       	out	0x3d, r28	; 61

000000f8 <__do_copy_data>:
      f8:	13 e0       	ldi	r17, 0x03	; 3
      fa:	a0 e0       	ldi	r26, 0x00	; 0
      fc:	b1 e0       	ldi	r27, 0x01	; 1
      fe:	e8 e3       	ldi	r30, 0x38	; 56
     100:	fd e2       	ldi	r31, 0x2D	; 45
     102:	00 e0       	ldi	r16, 0x00	; 0
     104:	0b bf       	out	0x3b, r16	; 59
     106:	02 c0       	rjmp	.+4      	; 0x10c <__do_copy_data+0x14>
     108:	07 90       	elpm	r0, Z+
     10a:	0d 92       	st	X+, r0
     10c:	a6 34       	cpi	r26, 0x46	; 70
     10e:	b1 07       	cpc	r27, r17
     110:	d9 f7       	brne	.-10     	; 0x108 <__do_copy_data+0x10>

00000112 <__do_clear_bss>:
     112:	14 e0       	ldi	r17, 0x04	; 4
     114:	a6 e4       	ldi	r26, 0x46	; 70
     116:	b3 e0       	ldi	r27, 0x03	; 3
     118:	01 c0       	rjmp	.+2      	; 0x11c <.do_clear_bss_start>

0000011a <.do_clear_bss_loop>:
     11a:	1d 92       	st	X+, r1

0000011c <.do_clear_bss_start>:
     11c:	ab 3d       	cpi	r26, 0xDB	; 219
     11e:	b1 07       	cpc	r27, r17
     120:	e1 f7       	brne	.-8      	; 0x11a <.do_clear_bss_loop>
     122:	0e 94 46 08 	call	0x108c	; 0x108c <main>
     126:	0c 94 9a 16 	jmp	0x2d34	; 0x2d34 <_exit>

0000012a <__bad_interrupt>:
     12a:	0c 94 00 00 	jmp	0	; 0x0 <__vectors>

0000012e <__vector_13>:
/******************* CLOCK INTERRUPT HANDLER ************************/

/**
 * Clock interrupt handler executing the kernel
 */
ISR(TIMER1_COMPA_vect) {
     12e:	1f 92       	push	r1
     130:	0f 92       	push	r0
     132:	0f b6       	in	r0, 0x3f	; 63
     134:	0f 92       	push	r0
     136:	0b b6       	in	r0, 0x3b	; 59
     138:	0f 92       	push	r0
     13a:	11 24       	eor	r1, r1
     13c:	2f 92       	push	r2
     13e:	3f 92       	push	r3
     140:	4f 92       	push	r4
     142:	5f 92       	push	r5
     144:	6f 92       	push	r6
     146:	7f 92       	push	r7
     148:	8f 92       	push	r8
     14a:	9f 92       	push	r9
     14c:	af 92       	push	r10
     14e:	bf 92       	push	r11
     150:	cf 92       	push	r12
     152:	df 92       	push	r13
     154:	ef 92       	push	r14
     156:	ff 92       	push	r15
     158:	0f 93       	push	r16
     15a:	1f 93       	push	r17
     15c:	2f 93       	push	r18
     15e:	3f 93       	push	r19
     160:	4f 93       	push	r20
     162:	5f 93       	push	r21
     164:	6f 93       	push	r22
     166:	7f 93       	push	r23
     168:	8f 93       	push	r24
     16a:	9f 93       	push	r25
     16c:	af 93       	push	r26
     16e:	bf 93       	push	r27
     170:	cf 93       	push	r28
     172:	df 93       	push	r29
     174:	ef 93       	push	r30
     176:	ff 93       	push	r31
  uint8_t i;
  uint32_t now;
  uint32_t nextHit;
  int32_t timeleft;
  
  TIMSK1 = 0 ; //&= ~(1<<OCIE1A); // turn off output compare 1A ISR
     178:	10 92 6f 00 	sts	0x006F, r1
  //PORTC = ~PORTC ;
  nextHit = 0x7FFFFFFF;
  oldrunning = kernel.running;
     17c:	50 90 84 04 	lds	r5, 0x0484
  running = 0;

  if (TIFR1 & (1<<TOV1)) {
     180:	b0 9b       	sbis	0x16, 0	; 22
     182:	14 c0       	rjmp	.+40     	; 0x1ac <__vector_13+0x7e>
    ++kernel.cycles;
     184:	80 91 c6 04 	lds	r24, 0x04C6
     188:	90 91 c7 04 	lds	r25, 0x04C7
     18c:	a0 91 c8 04 	lds	r26, 0x04C8
     190:	b0 91 c9 04 	lds	r27, 0x04C9
     194:	01 96       	adiw	r24, 0x01	; 1
     196:	a1 1d       	adc	r26, r1
     198:	b1 1d       	adc	r27, r1
     19a:	80 93 c6 04 	sts	0x04C6, r24
     19e:	90 93 c7 04 	sts	0x04C7, r25
     1a2:	a0 93 c8 04 	sts	0x04C8, r26
     1a6:	b0 93 c9 04 	sts	0x04C9, r27
    TIFR1 |= (1<<TOV1) ;
     1aa:	b0 9a       	sbi	0x16, 0	; 22
  }

  // Read clock

  now = (kernel.cycles << 16) + TCNT1;
     1ac:	80 91 84 00 	lds	r24, 0x0084
     1b0:	90 91 85 00 	lds	r25, 0x0085
     1b4:	3c 01       	movw	r6, r24
     1b6:	88 24       	eor	r8, r8
     1b8:	99 24       	eor	r9, r9
     1ba:	80 91 c6 04 	lds	r24, 0x04C6
     1be:	90 91 c7 04 	lds	r25, 0x04C7
     1c2:	a0 91 c8 04 	lds	r26, 0x04C8
     1c6:	b0 91 c9 04 	lds	r27, 0x04C9
     1ca:	dc 01       	movw	r26, r24
     1cc:	99 27       	eor	r25, r25
     1ce:	88 27       	eor	r24, r24
     1d0:	68 0e       	add	r6, r24
     1d2:	79 1e       	adc	r7, r25
     1d4:	8a 1e       	adc	r8, r26
     1d6:	9b 1e       	adc	r9, r27

  // Release tasks from TimeQ and determine new running task

  for (i=1; i <= kernel.nbrOfTasks; i++) {
     1d8:	40 90 83 04 	lds	r4, 0x0483
     1dc:	70 e0       	ldi	r23, 0x00	; 0
     1de:	61 e0       	ldi	r22, 0x01	; 1
     1e0:	ff ef       	ldi	r31, 0xFF	; 255
     1e2:	af 2e       	mov	r10, r31
     1e4:	ff ef       	ldi	r31, 0xFF	; 255
     1e6:	bf 2e       	mov	r11, r31
     1e8:	ff ef       	ldi	r31, 0xFF	; 255
     1ea:	cf 2e       	mov	r12, r31
     1ec:	ff e7       	ldi	r31, 0x7F	; 127
     1ee:	df 2e       	mov	r13, r31
    t = &kernel.tasks[i];
     1f0:	eb e0       	ldi	r30, 0x0B	; 11
     1f2:	2e 2e       	mov	r2, r30
    if (t->state == TIMEQ) {
      if (t->release <= now) {
  t->state = READYQ;
     1f4:	33 24       	eor	r3, r3
     1f6:	33 94       	inc	r3
      } else if (t->release < nextHit) {
  nextHit = t->release;
      }
    }
    if (t->state == READYQ) {
      if (t->deadline < kernel.tasks[running].deadline) {
     1f8:	cb e0       	ldi	r28, 0x0B	; 11
     1fa:	d0 e0       	ldi	r29, 0x00	; 0
     1fc:	43 c0       	rjmp	.+134    	; 0x284 <__vector_13+0x156>
  now = (kernel.cycles << 16) + TCNT1;

  // Release tasks from TimeQ and determine new running task

  for (i=1; i <= kernel.nbrOfTasks; i++) {
    t = &kernel.tasks[i];
     1fe:	62 9d       	mul	r22, r2
     200:	d0 01       	movw	r26, r0
     202:	11 24       	eor	r1, r1
     204:	ab 57       	subi	r26, 0x7B	; 123
     206:	bb 4f       	sbci	r27, 0xFB	; 251
    if (t->state == TIMEQ) {
     208:	1a 96       	adiw	r26, 0x0a	; 10
     20a:	8c 91       	ld	r24, X
     20c:	1a 97       	sbiw	r26, 0x0a	; 10
     20e:	82 30       	cpi	r24, 0x02	; 2
     210:	a1 f4       	brne	.+40     	; 0x23a <__vector_13+0x10c>
      if (t->release <= now) {
     212:	12 96       	adiw	r26, 0x02	; 2
     214:	ed 90       	ld	r14, X+
     216:	fd 90       	ld	r15, X+
     218:	0d 91       	ld	r16, X+
     21a:	1c 91       	ld	r17, X
     21c:	15 97       	sbiw	r26, 0x05	; 5
     21e:	6e 14       	cp	r6, r14
     220:	7f 04       	cpc	r7, r15
     222:	80 06       	cpc	r8, r16
     224:	91 06       	cpc	r9, r17
     226:	20 f0       	brcs	.+8      	; 0x230 <__vector_13+0x102>
  t->state = READYQ;
     228:	1a 96       	adiw	r26, 0x0a	; 10
     22a:	3c 92       	st	X, r3
     22c:	1a 97       	sbiw	r26, 0x0a	; 10
     22e:	05 c0       	rjmp	.+10     	; 0x23a <__vector_13+0x10c>
      } else if (t->release < nextHit) {
     230:	ea 14       	cp	r14, r10
     232:	fb 04       	cpc	r15, r11
     234:	0c 05       	cpc	r16, r12
     236:	1d 05       	cpc	r17, r13
     238:	10 f0       	brcs	.+4      	; 0x23e <__vector_13+0x110>
     23a:	86 01       	movw	r16, r12
     23c:	75 01       	movw	r14, r10
  nextHit = t->release;
      }
    }
    if (t->state == READYQ) {
     23e:	1a 96       	adiw	r26, 0x0a	; 10
     240:	8c 91       	ld	r24, X
     242:	1a 97       	sbiw	r26, 0x0a	; 10
     244:	81 30       	cpi	r24, 0x01	; 1
     246:	d9 f4       	brne	.+54     	; 0x27e <__vector_13+0x150>
      if (t->deadline < kernel.tasks[running].deadline) {
     248:	87 2f       	mov	r24, r23
     24a:	90 e0       	ldi	r25, 0x00	; 0
     24c:	8c 9f       	mul	r24, r28
     24e:	f0 01       	movw	r30, r0
     250:	8d 9f       	mul	r24, r29
     252:	f0 0d       	add	r31, r0
     254:	9c 9f       	mul	r25, r28
     256:	f0 0d       	add	r31, r0
     258:	11 24       	eor	r1, r1
     25a:	ed 57       	subi	r30, 0x7D	; 125
     25c:	fb 4f       	sbci	r31, 0xFB	; 251
     25e:	16 96       	adiw	r26, 0x06	; 6
     260:	2d 91       	ld	r18, X+
     262:	3d 91       	ld	r19, X+
     264:	4d 91       	ld	r20, X+
     266:	5c 91       	ld	r21, X
     268:	19 97       	sbiw	r26, 0x09	; 9
     26a:	80 85       	ldd	r24, Z+8	; 0x08
     26c:	91 85       	ldd	r25, Z+9	; 0x09
     26e:	a2 85       	ldd	r26, Z+10	; 0x0a
     270:	b3 85       	ldd	r27, Z+11	; 0x0b
     272:	28 17       	cp	r18, r24
     274:	39 07       	cpc	r19, r25
     276:	4a 07       	cpc	r20, r26
     278:	5b 07       	cpc	r21, r27
     27a:	08 f4       	brcc	.+2      	; 0x27e <__vector_13+0x150>
     27c:	76 2f       	mov	r23, r22

  now = (kernel.cycles << 16) + TCNT1;

  // Release tasks from TimeQ and determine new running task

  for (i=1; i <= kernel.nbrOfTasks; i++) {
     27e:	6f 5f       	subi	r22, 0xFF	; 255
     280:	57 01       	movw	r10, r14
     282:	68 01       	movw	r12, r16
     284:	46 16       	cp	r4, r22
     286:	08 f0       	brcs	.+2      	; 0x28a <__vector_13+0x15c>
     288:	ba cf       	rjmp	.-140    	; 0x1fe <__vector_13+0xd0>
    }
  }
  //fprintf(stdout, "Old: %u New: %u\n\r", oldrunning, running);
  //fprintf(stdout, "NumTasks: %u\n\r", kernel.nbrOfTasks);
  //fprintf(stdout, "Current time: %lu\n\r", (unsigned long) trtCurrentTime());
  if (running != oldrunning) { // perform context switch?
     28a:	75 15       	cp	r23, r5
     28c:	b1 f0       	breq	.+44     	; 0x2ba <__vector_13+0x18c>

    // store old context
    t = &kernel.tasks[oldrunning];
     28e:	eb e0       	ldi	r30, 0x0B	; 11
     290:	5e 9e       	mul	r5, r30
     292:	d0 01       	movw	r26, r0
     294:	11 24       	eor	r1, r1
     296:	ab 57       	subi	r26, 0x7B	; 123
     298:	bb 4f       	sbci	r27, 0xFB	; 251
    t->spl = SPL;
     29a:	8d b7       	in	r24, 0x3d	; 61
     29c:	8c 93       	st	X, r24
    t->sph = SPH;
     29e:	8e b7       	in	r24, 0x3e	; 62
     2a0:	11 96       	adiw	r26, 0x01	; 1
     2a2:	8c 93       	st	X, r24

    // load new context
    t = &kernel.tasks[running];
     2a4:	7e 9f       	mul	r23, r30
     2a6:	f0 01       	movw	r30, r0
     2a8:	11 24       	eor	r1, r1
     2aa:	eb 57       	subi	r30, 0x7B	; 123
     2ac:	fb 4f       	sbci	r31, 0xFB	; 251
    SPH = t->sph;
     2ae:	81 81       	ldd	r24, Z+1	; 0x01
     2b0:	8e bf       	out	0x3e, r24	; 62
    SPL = t->spl;
     2b2:	80 81       	ld	r24, Z
     2b4:	8d bf       	out	0x3d, r24	; 61

    kernel.running = running;
     2b6:	70 93 84 04 	sts	0x0484, r23

  }

  kernel.nextHit = nextHit;  
     2ba:	a0 92 ca 04 	sts	0x04CA, r10
     2be:	b0 92 cb 04 	sts	0x04CB, r11
     2c2:	c0 92 cc 04 	sts	0x04CC, r12
     2c6:	d0 92 cd 04 	sts	0x04CD, r13

  now = (kernel.cycles << 16) + TCNT1;
     2ca:	20 91 84 00 	lds	r18, 0x0084
     2ce:	30 91 85 00 	lds	r19, 0x0085
  timeleft = (int32_t)nextHit - (int32_t)now;
     2d2:	40 e0       	ldi	r20, 0x00	; 0
     2d4:	50 e0       	ldi	r21, 0x00	; 0
     2d6:	80 91 c6 04 	lds	r24, 0x04C6
     2da:	90 91 c7 04 	lds	r25, 0x04C7
     2de:	a0 91 c8 04 	lds	r26, 0x04C8
     2e2:	b0 91 c9 04 	lds	r27, 0x04C9
     2e6:	dc 01       	movw	r26, r24
     2e8:	99 27       	eor	r25, r25
     2ea:	88 27       	eor	r24, r24
     2ec:	28 0f       	add	r18, r24
     2ee:	39 1f       	adc	r19, r25
     2f0:	4a 1f       	adc	r20, r26
     2f2:	5b 1f       	adc	r21, r27
     2f4:	d6 01       	movw	r26, r12
     2f6:	c5 01       	movw	r24, r10
     2f8:	82 1b       	sub	r24, r18
     2fa:	93 0b       	sbc	r25, r19
     2fc:	a4 0b       	sbc	r26, r20
     2fe:	b5 0b       	sbc	r27, r21
     300:	9c 01       	movw	r18, r24
     302:	ad 01       	movw	r20, r26
  if (timeleft < 4) {
     304:	84 30       	cpi	r24, 0x04	; 4
     306:	91 05       	cpc	r25, r1
     308:	a1 05       	cpc	r26, r1
     30a:	b1 05       	cpc	r27, r1
     30c:	24 f4       	brge	.+8      	; 0x316 <__vector_13+0x1e8>
     30e:	24 e0       	ldi	r18, 0x04	; 4
     310:	30 e0       	ldi	r19, 0x00	; 0
     312:	40 e0       	ldi	r20, 0x00	; 0
     314:	50 e0       	ldi	r21, 0x00	; 0
    timeleft = 4;
  }

  if ((unsigned long)TCNT1 + timeleft < 65536) {
     316:	80 91 84 00 	lds	r24, 0x0084
     31a:	90 91 85 00 	lds	r25, 0x0085
     31e:	a0 e0       	ldi	r26, 0x00	; 0
     320:	b0 e0       	ldi	r27, 0x00	; 0
     322:	82 0f       	add	r24, r18
     324:	93 1f       	adc	r25, r19
     326:	a4 1f       	adc	r26, r20
     328:	b5 1f       	adc	r27, r21
     32a:	80 50       	subi	r24, 0x00	; 0
     32c:	90 40       	sbci	r25, 0x00	; 0
     32e:	a1 40       	sbci	r26, 0x01	; 1
     330:	b0 40       	sbci	r27, 0x00	; 0
     332:	38 f4       	brcc	.+14     	; 0x342 <__vector_13+0x214>
    OCR1A = TCNT1 + timeleft;
     334:	80 91 84 00 	lds	r24, 0x0084
     338:	90 91 85 00 	lds	r25, 0x0085
     33c:	82 0f       	add	r24, r18
     33e:	93 1f       	adc	r25, r19
     340:	0e c0       	rjmp	.+28     	; 0x35e <__vector_13+0x230>
  } else if (TCNT1 < 65536 - 4) {
     342:	80 91 84 00 	lds	r24, 0x0084
     346:	90 91 85 00 	lds	r25, 0x0085
     34a:	8c 5f       	subi	r24, 0xFC	; 252
     34c:	9f 4f       	sbci	r25, 0xFF	; 255
     34e:	28 f4       	brcc	.+10     	; 0x35a <__vector_13+0x22c>
    OCR1A = 0x0000;
     350:	10 92 89 00 	sts	0x0089, r1
     354:	10 92 88 00 	sts	0x0088, r1
     358:	06 c0       	rjmp	.+12     	; 0x366 <__vector_13+0x238>
  } else {
    OCR1A = 4;
     35a:	84 e0       	ldi	r24, 0x04	; 4
     35c:	90 e0       	ldi	r25, 0x00	; 0
     35e:	90 93 89 00 	sts	0x0089, r25
     362:	80 93 88 00 	sts	0x0088, r24
  }

  TIMSK1 = (1<<OCIE1A);
     366:	82 e0       	ldi	r24, 0x02	; 2
     368:	80 93 6f 00 	sts	0x006F, r24
}
     36c:	ff 91       	pop	r31
     36e:	ef 91       	pop	r30
     370:	df 91       	pop	r29
     372:	cf 91       	pop	r28
     374:	bf 91       	pop	r27
     376:	af 91       	pop	r26
     378:	9f 91       	pop	r25
     37a:	8f 91       	pop	r24
     37c:	7f 91       	pop	r23
     37e:	6f 91       	pop	r22
     380:	5f 91       	pop	r21
     382:	4f 91       	pop	r20
     384:	3f 91       	pop	r19
     386:	2f 91       	pop	r18
     388:	1f 91       	pop	r17
     38a:	0f 91       	pop	r16
     38c:	ff 90       	pop	r15
     38e:	ef 90       	pop	r14
     390:	df 90       	pop	r13
     392:	cf 90       	pop	r12
     394:	bf 90       	pop	r11
     396:	af 90       	pop	r10
     398:	9f 90       	pop	r9
     39a:	8f 90       	pop	r8
     39c:	7f 90       	pop	r7
     39e:	6f 90       	pop	r6
     3a0:	5f 90       	pop	r5
     3a2:	4f 90       	pop	r4
     3a4:	3f 90       	pop	r3
     3a6:	2f 90       	pop	r2
     3a8:	0f 90       	pop	r0
     3aa:	0b be       	out	0x3b, r0	; 59
     3ac:	0f 90       	pop	r0
     3ae:	0f be       	out	0x3f, r0	; 63
     3b0:	0f 90       	pop	r0
     3b2:	1f 90       	pop	r1
     3b4:	18 95       	reti

000003b6 <trtInitKernel>:
/********************************** API ************************************/

void trtInitKernel(int idlestack) {

  /* Set up timer 1 */
  TCNT1 = 0x0000;        /* reset counter 1 */
     3b6:	10 92 85 00 	sts	0x0085, r1
     3ba:	10 92 84 00 	sts	0x0084, r1
  TCCR1A = 0x00;         /* normal operation */
     3be:	10 92 80 00 	sts	0x0080, r1
  TCCR1B = PRESCALEBITS; /* prescaler = 1024 */
     3c2:	25 e0       	ldi	r18, 0x05	; 5
     3c4:	20 93 81 00 	sts	0x0081, r18
  TIMSK1 = (1<<OCIE1A);  // turn on compare match ISR
     3c8:	22 e0       	ldi	r18, 0x02	; 2
     3ca:	20 93 6f 00 	sts	0x006F, r18

  kernel.memptr = (void*)(RAMEND - idlestack);
     3ce:	2f ef       	ldi	r18, 0xFF	; 255
     3d0:	30 e4       	ldi	r19, 0x40	; 64
     3d2:	28 1b       	sub	r18, r24
     3d4:	39 0b       	sbc	r19, r25
     3d6:	30 93 c5 04 	sts	0x04C5, r19
     3da:	20 93 c4 04 	sts	0x04C4, r18
  kernel.nbrOfTasks = 0;
     3de:	10 92 83 04 	sts	0x0483, r1
  kernel.running = 0;
     3e2:	10 92 84 04 	sts	0x0484, r1

  kernel.cycles = 0x0000;
     3e6:	10 92 c6 04 	sts	0x04C6, r1
     3ea:	10 92 c7 04 	sts	0x04C7, r1
     3ee:	10 92 c8 04 	sts	0x04C8, r1
     3f2:	10 92 c9 04 	sts	0x04C9, r1
  kernel.nextHit = 0x7FFFFFFF;
     3f6:	8f ef       	ldi	r24, 0xFF	; 255
     3f8:	9f ef       	ldi	r25, 0xFF	; 255
     3fa:	af ef       	ldi	r26, 0xFF	; 255
     3fc:	bf e7       	ldi	r27, 0x7F	; 127
     3fe:	80 93 ca 04 	sts	0x04CA, r24
     402:	90 93 cb 04 	sts	0x04CB, r25
     406:	a0 93 cc 04 	sts	0x04CC, r26
     40a:	b0 93 cd 04 	sts	0x04CD, r27

  // Initialize idle task (task 0)
  kernel.tasks[0].deadline = 0x7FFFFFFF;
     40e:	80 93 8b 04 	sts	0x048B, r24
     412:	90 93 8c 04 	sts	0x048C, r25
     416:	a0 93 8d 04 	sts	0x048D, r26
     41a:	b0 93 8e 04 	sts	0x048E, r27
  kernel.tasks[0].release = 0x00000000;
     41e:	10 92 87 04 	sts	0x0487, r1
     422:	10 92 88 04 	sts	0x0488, r1
     426:	10 92 89 04 	sts	0x0489, r1
     42a:	10 92 8a 04 	sts	0x048A, r1

  sei(); /* set enabled interrupts */
     42e:	78 94       	sei
}
     430:	08 95       	ret

00000432 <trtCreateTask>:


void trtCreateTask(void (*fun)(void*), uint16_t stacksize, uint32_t release, uint32_t deadline, void *args) {
     432:	8f 92       	push	r8
     434:	9f 92       	push	r9
     436:	af 92       	push	r10
     438:	bf 92       	push	r11
     43a:	cf 92       	push	r12
     43c:	df 92       	push	r13
     43e:	ef 92       	push	r14
     440:	ff 92       	push	r15
     442:	0f 93       	push	r16
     444:	1f 93       	push	r17
     446:	cf 93       	push	r28
     448:	df 93       	push	r29
     44a:	49 01       	movw	r8, r18
     44c:	5a 01       	movw	r10, r20

  uint8_t *sp;
  struct task *t;
  int i;

  cli(); // turn off interrupts
     44e:	f8 94       	cli

  ++kernel.nbrOfTasks;
     450:	20 91 83 04 	lds	r18, 0x0483
     454:	2f 5f       	subi	r18, 0xFF	; 255
     456:	20 93 83 04 	sts	0x0483, r18

  sp = kernel.memptr;
     45a:	c0 91 c4 04 	lds	r28, 0x04C4
     45e:	d0 91 c5 04 	lds	r29, 0x04C5
  kernel.memptr -= stacksize;  // decrease free mem ptr
     462:	9e 01       	movw	r18, r28
     464:	26 1b       	sub	r18, r22
     466:	37 0b       	sbc	r19, r23
     468:	30 93 c5 04 	sts	0x04C5, r19
     46c:	20 93 c4 04 	sts	0x04C4, r18

  // initialize stack
  *sp-- = lo8(fun);       // store PC(lo)
     470:	88 83       	st	Y, r24
     472:	fe 01       	movw	r30, r28
  *sp-- = hi8(fun);       // store PC(hi)
     474:	92 93       	st	-Z, r25
     476:	31 97       	sbiw	r30, 0x01	; 1
     478:	df 01       	movw	r26, r30
  for (i=0; i<26; i++)    //WAS -- for (i=0; i<25; i++)
     47a:	ce 01       	movw	r24, r28
     47c:	4c 97       	sbiw	r24, 0x1c	; 28
    *sp-- = 0x00;         // store SREG,r0-r1,r3-r23
     47e:	1c 92       	st	X, r1
     480:	11 97       	sbiw	r26, 0x01	; 1
  kernel.memptr -= stacksize;  // decrease free mem ptr

  // initialize stack
  *sp-- = lo8(fun);       // store PC(lo)
  *sp-- = hi8(fun);       // store PC(hi)
  for (i=0; i<26; i++)    //WAS -- for (i=0; i<25; i++)
     482:	a8 17       	cp	r26, r24
     484:	b9 07       	cpc	r27, r25
     486:	d9 f7       	brne	.-10     	; 0x47e <trtCreateTask+0x4c>
     488:	7a 97       	sbiw	r30, 0x1a	; 26
    *sp-- = 0x00;         // store SREG,r0-r1,r3-r23

  // Save args in r24-25 (input arguments stored in these registers)
  *sp-- = lo8(args);
     48a:	c0 82       	st	Z, r12
  *sp-- = hi8(args);
     48c:	d2 92       	st	-Z, r13
     48e:	31 97       	sbiw	r30, 0x01	; 1
     490:	df 01       	movw	r26, r30

  for (i=0; i<6; i++)
     492:	9e 01       	movw	r18, r28
     494:	24 52       	subi	r18, 0x24	; 36
     496:	30 40       	sbci	r19, 0x00	; 0
    *sp-- = 0x00;         // store r26-r31
     498:	1c 92       	st	X, r1
     49a:	11 97       	sbiw	r26, 0x01	; 1

  // Save args in r24-25 (input arguments stored in these registers)
  *sp-- = lo8(args);
  *sp-- = hi8(args);

  for (i=0; i<6; i++)
     49c:	a2 17       	cp	r26, r18
     49e:	b3 07       	cpc	r27, r19
     4a0:	d9 f7       	brne	.-10     	; 0x498 <trtCreateTask+0x66>
     4a2:	9f 01       	movw	r18, r30
     4a4:	26 50       	subi	r18, 0x06	; 6
     4a6:	30 40       	sbci	r19, 0x00	; 0
    *sp-- = 0x00;         // store r26-r31

  t = &kernel.tasks[kernel.nbrOfTasks];
     4a8:	e0 91 83 04 	lds	r30, 0x0483
     4ac:	8b e0       	ldi	r24, 0x0B	; 11
     4ae:	e8 9f       	mul	r30, r24
     4b0:	f0 01       	movw	r30, r0
     4b2:	11 24       	eor	r1, r1
     4b4:	eb 57       	subi	r30, 0x7B	; 123
     4b6:	fb 4f       	sbci	r31, 0xFB	; 251
  ///*
  t->release = release;
     4b8:	82 82       	std	Z+2, r8	; 0x02
     4ba:	93 82       	std	Z+3, r9	; 0x03
     4bc:	a4 82       	std	Z+4, r10	; 0x04
     4be:	b5 82       	std	Z+5, r11	; 0x05
  t->deadline = deadline;
     4c0:	e6 82       	std	Z+6, r14	; 0x06
     4c2:	f7 82       	std	Z+7, r15	; 0x07
     4c4:	00 87       	std	Z+8, r16	; 0x08
     4c6:	11 87       	std	Z+9, r17	; 0x09
  t->state = TIMEQ;
     4c8:	82 e0       	ldi	r24, 0x02	; 2
     4ca:	82 87       	std	Z+10, r24	; 0x0a
  //*/
  t->spl = lo8(sp);       // store stack pointer
     4cc:	20 83       	st	Z, r18
  t->sph = hi8(sp);
     4ce:	31 83       	std	Z+1, r19	; 0x01
  

  // call interrupt handler to schedule
  TIMER1_COMPA_vect();
     4d0:	0e 94 97 00 	call	0x12e	; 0x12e <__vector_13>

}
     4d4:	df 91       	pop	r29
     4d6:	cf 91       	pop	r28
     4d8:	1f 91       	pop	r17
     4da:	0f 91       	pop	r16
     4dc:	ff 90       	pop	r15
     4de:	ef 90       	pop	r14
     4e0:	df 90       	pop	r13
     4e2:	cf 90       	pop	r12
     4e4:	bf 90       	pop	r11
     4e6:	af 90       	pop	r10
     4e8:	9f 90       	pop	r9
     4ea:	8f 90       	pop	r8
     4ec:	08 95       	ret

000004ee <trtCreateSemaphore>:

void trtCreateSemaphore(uint8_t semnbr, uint8_t initVal) {

  cli(); // turn off interrupts
     4ee:	f8 94       	cli

  kernel.semaphores[semnbr-1] = initVal;
     4f0:	e3 e8       	ldi	r30, 0x83	; 131
     4f2:	f4 e0       	ldi	r31, 0x04	; 4
     4f4:	e8 0f       	add	r30, r24
     4f6:	f1 1d       	adc	r31, r1
     4f8:	60 af       	std	Z+56, r22	; 0x38
  
  sei(); // set enabled interrupts;
     4fa:	78 94       	sei
}
     4fc:	08 95       	ret

000004fe <trtWait>:

void trtWait(uint8_t semnbr) {
     4fe:	48 2f       	mov	r20, r24

  struct task *t;
  uint8_t *s;

  t = &kernel.tasks[kernel.running];
     500:	20 91 84 04 	lds	r18, 0x0484

  cli(); // disable interrupts
     504:	f8 94       	cli

  s = &kernel.semaphores[semnbr-1];
     506:	e8 2f       	mov	r30, r24
     508:	f0 e0       	ldi	r31, 0x00	; 0
     50a:	e5 54       	subi	r30, 0x45	; 69
     50c:	fb 4f       	sbci	r31, 0xFB	; 251
  if ((*s) > 0) {
     50e:	80 81       	ld	r24, Z
     510:	88 23       	and	r24, r24
     512:	19 f0       	breq	.+6      	; 0x51a <trtWait+0x1c>
    (*s)--;
     514:	81 50       	subi	r24, 0x01	; 1
     516:	80 83       	st	Z, r24
     518:	10 c0       	rjmp	.+32     	; 0x53a <trtWait+0x3c>
  } else {

    t->state = semnbr + WAIT_OFFSET; // waiting for Sem#semnbr
     51a:	30 e0       	ldi	r19, 0x00	; 0
     51c:	8b e0       	ldi	r24, 0x0B	; 11
     51e:	90 e0       	ldi	r25, 0x00	; 0
     520:	28 9f       	mul	r18, r24
     522:	f0 01       	movw	r30, r0
     524:	29 9f       	mul	r18, r25
     526:	f0 0d       	add	r31, r0
     528:	38 9f       	mul	r19, r24
     52a:	f0 0d       	add	r31, r0
     52c:	11 24       	eor	r1, r1
     52e:	eb 57       	subi	r30, 0x7B	; 123
     530:	fb 4f       	sbci	r31, 0xFB	; 251
     532:	4e 5f       	subi	r20, 0xFE	; 254
     534:	42 87       	std	Z+10, r20	; 0x0a
    // call interrupt handler to schedule
  TIMER1_COMPA_vect();
     536:	0e 94 97 00 	call	0x12e	; 0x12e <__vector_13>
  }

  sei(); // reenable interrupts
     53a:	78 94       	sei
}
     53c:	08 95       	ret

0000053e <trtSignal>:

void trtSignal(uint8_t semnbr) {
     53e:	ff 92       	push	r15
     540:	0f 93       	push	r16
     542:	1f 93       	push	r17
     544:	18 2f       	mov	r17, r24
  uint8_t i;
  struct task *t;
  uint32_t minDeadline = 0xFFFFFFFF;
  uint8_t taskToReadyQ = 0;

  cli(); // disable interrupts
     546:	f8 94       	cli

  for (i=1; i <= kernel.nbrOfTasks; i++) {
     548:	00 91 83 04 	lds	r16, 0x0483
     54c:	e1 e0       	ldi	r30, 0x01	; 1
     54e:	4f ef       	ldi	r20, 0xFF	; 255
     550:	5f ef       	ldi	r21, 0xFF	; 255
     552:	6f ef       	ldi	r22, 0xFF	; 255
     554:	7f ef       	ldi	r23, 0xFF	; 255
     556:	f0 e0       	ldi	r31, 0x00	; 0
    t = &kernel.tasks[i];
     558:	8b e0       	ldi	r24, 0x0B	; 11
     55a:	f8 2e       	mov	r15, r24
    if (t->state == (semnbr + WAIT_OFFSET)) {
     55c:	21 2f       	mov	r18, r17
     55e:	30 e0       	ldi	r19, 0x00	; 0
     560:	2e 5f       	subi	r18, 0xFE	; 254
     562:	3f 4f       	sbci	r19, 0xFF	; 255
     564:	1e c0       	rjmp	.+60     	; 0x5a2 <trtSignal+0x64>
  uint8_t taskToReadyQ = 0;

  cli(); // disable interrupts

  for (i=1; i <= kernel.nbrOfTasks; i++) {
    t = &kernel.tasks[i];
     566:	ef 9d       	mul	r30, r15
     568:	d0 01       	movw	r26, r0
     56a:	11 24       	eor	r1, r1
     56c:	ab 57       	subi	r26, 0x7B	; 123
     56e:	bb 4f       	sbci	r27, 0xFB	; 251
    if (t->state == (semnbr + WAIT_OFFSET)) {
     570:	1a 96       	adiw	r26, 0x0a	; 10
     572:	8c 91       	ld	r24, X
     574:	1a 97       	sbiw	r26, 0x0a	; 10
     576:	90 e0       	ldi	r25, 0x00	; 0
     578:	82 17       	cp	r24, r18
     57a:	93 07       	cpc	r25, r19
     57c:	69 f4       	brne	.+26     	; 0x598 <trtSignal+0x5a>
      if (t->deadline <= minDeadline) {
     57e:	16 96       	adiw	r26, 0x06	; 6
     580:	8d 91       	ld	r24, X+
     582:	9d 91       	ld	r25, X+
     584:	0d 90       	ld	r0, X+
     586:	bc 91       	ld	r27, X
     588:	a0 2d       	mov	r26, r0
     58a:	48 17       	cp	r20, r24
     58c:	59 07       	cpc	r21, r25
     58e:	6a 07       	cpc	r22, r26
     590:	7b 07       	cpc	r23, r27
     592:	10 f0       	brcs	.+4      	; 0x598 <trtSignal+0x5a>
     594:	fe 2f       	mov	r31, r30
     596:	02 c0       	rjmp	.+4      	; 0x59c <trtSignal+0x5e>
     598:	db 01       	movw	r26, r22
     59a:	ca 01       	movw	r24, r20
  uint32_t minDeadline = 0xFFFFFFFF;
  uint8_t taskToReadyQ = 0;

  cli(); // disable interrupts

  for (i=1; i <= kernel.nbrOfTasks; i++) {
     59c:	ef 5f       	subi	r30, 0xFF	; 255
     59e:	ac 01       	movw	r20, r24
     5a0:	bd 01       	movw	r22, r26
     5a2:	0e 17       	cp	r16, r30
     5a4:	00 f7       	brcc	.-64     	; 0x566 <trtSignal+0x28>
  minDeadline = t->deadline;
      }
    }
  }

  if (taskToReadyQ == 0) {
     5a6:	ff 23       	and	r31, r31
     5a8:	41 f4       	brne	.+16     	; 0x5ba <trtSignal+0x7c>
    kernel.semaphores[semnbr-1]++;
     5aa:	e1 2f       	mov	r30, r17
     5ac:	f0 e0       	ldi	r31, 0x00	; 0
     5ae:	ee 57       	subi	r30, 0x7E	; 126
     5b0:	fb 4f       	sbci	r31, 0xFB	; 251
     5b2:	81 ad       	ldd	r24, Z+57	; 0x39
     5b4:	8f 5f       	subi	r24, 0xFF	; 255
     5b6:	81 af       	std	Z+57, r24	; 0x39
     5b8:	11 c0       	rjmp	.+34     	; 0x5dc <trtSignal+0x9e>
  } else {
    kernel.tasks[taskToReadyQ].state = READYQ; // make task ready
     5ba:	2f 2f       	mov	r18, r31
     5bc:	30 e0       	ldi	r19, 0x00	; 0
     5be:	8b e0       	ldi	r24, 0x0B	; 11
     5c0:	90 e0       	ldi	r25, 0x00	; 0
     5c2:	28 9f       	mul	r18, r24
     5c4:	f0 01       	movw	r30, r0
     5c6:	29 9f       	mul	r18, r25
     5c8:	f0 0d       	add	r31, r0
     5ca:	38 9f       	mul	r19, r24
     5cc:	f0 0d       	add	r31, r0
     5ce:	11 24       	eor	r1, r1
     5d0:	ed 57       	subi	r30, 0x7D	; 125
     5d2:	fb 4f       	sbci	r31, 0xFB	; 251
     5d4:	81 e0       	ldi	r24, 0x01	; 1
     5d6:	84 87       	std	Z+12, r24	; 0x0c
    // call interrupt handler to schedule
  TIMER1_COMPA_vect();
     5d8:	0e 94 97 00 	call	0x12e	; 0x12e <__vector_13>
  }

  sei(); // reenable interrupts
     5dc:	78 94       	sei
}
     5de:	1f 91       	pop	r17
     5e0:	0f 91       	pop	r16
     5e2:	ff 90       	pop	r15
     5e4:	08 95       	ret

000005e6 <trtCurrentTime>:

uint32_t trtCurrentTime(void) {

  return (((uint32_t)kernel.cycles << 16) + (uint32_t)TCNT1);
     5e6:	20 91 84 00 	lds	r18, 0x0084
     5ea:	30 91 85 00 	lds	r19, 0x0085
     5ee:	40 e0       	ldi	r20, 0x00	; 0
     5f0:	50 e0       	ldi	r21, 0x00	; 0
     5f2:	80 91 c6 04 	lds	r24, 0x04C6
     5f6:	90 91 c7 04 	lds	r25, 0x04C7
     5fa:	a0 91 c8 04 	lds	r26, 0x04C8
     5fe:	b0 91 c9 04 	lds	r27, 0x04C9
     602:	dc 01       	movw	r26, r24
     604:	99 27       	eor	r25, r25
     606:	88 27       	eor	r24, r24
     608:	28 0f       	add	r18, r24
     60a:	39 1f       	adc	r19, r25
     60c:	4a 1f       	adc	r20, r26
     60e:	5b 1f       	adc	r21, r27
}
     610:	b9 01       	movw	r22, r18
     612:	ca 01       	movw	r24, r20
     614:	08 95       	ret

00000616 <trtSleepUntil>:

void trtSleepUntil(uint32_t release, uint32_t deadline) {

  struct task *t;

  t = &kernel.tasks[kernel.running];
     616:	e0 91 84 04 	lds	r30, 0x0484
     61a:	ab e0       	ldi	r26, 0x0B	; 11
     61c:	ea 9f       	mul	r30, r26
     61e:	f0 01       	movw	r30, r0
     620:	11 24       	eor	r1, r1
     622:	eb 57       	subi	r30, 0x7B	; 123
     624:	fb 4f       	sbci	r31, 0xFB	; 251

  cli(); // turn off interrupts
     626:	f8 94       	cli

  t->state = TIMEQ;
     628:	a2 e0       	ldi	r26, 0x02	; 2
     62a:	a2 87       	std	Z+10, r26	; 0x0a
  t->release = release;
     62c:	62 83       	std	Z+2, r22	; 0x02
     62e:	73 83       	std	Z+3, r23	; 0x03
     630:	84 83       	std	Z+4, r24	; 0x04
     632:	95 83       	std	Z+5, r25	; 0x05
  t->deadline = deadline;
     634:	26 83       	std	Z+6, r18	; 0x06
     636:	37 83       	std	Z+7, r19	; 0x07
     638:	40 87       	std	Z+8, r20	; 0x08
     63a:	51 87       	std	Z+9, r21	; 0x09
  
  // call interrupt handler to schedule
  TIMER1_COMPA_vect();
     63c:	0e 94 97 00 	call	0x12e	; 0x12e <__vector_13>
}
     640:	08 95       	ret

00000642 <trtGetRelease>:


uint32_t trtGetRelease(void) {
     642:	80 91 84 04 	lds	r24, 0x0484
     646:	90 e0       	ldi	r25, 0x00	; 0
     648:	2b e0       	ldi	r18, 0x0B	; 11
     64a:	30 e0       	ldi	r19, 0x00	; 0
     64c:	82 9f       	mul	r24, r18
     64e:	f0 01       	movw	r30, r0
     650:	83 9f       	mul	r24, r19
     652:	f0 0d       	add	r31, r0
     654:	92 9f       	mul	r25, r18
     656:	f0 0d       	add	r31, r0
     658:	11 24       	eor	r1, r1
     65a:	ed 57       	subi	r30, 0x7D	; 125
     65c:	fb 4f       	sbci	r31, 0xFB	; 251
     65e:	df 01       	movw	r26, r30
     660:	14 96       	adiw	r26, 0x04	; 4
     662:	64 81       	ldd	r22, Z+4	; 0x04
     664:	11 96       	adiw	r26, 0x01	; 1
     666:	7c 91       	ld	r23, X
     668:	11 97       	sbiw	r26, 0x01	; 1
  return kernel.tasks[kernel.running].release;
}
     66a:	12 96       	adiw	r26, 0x02	; 2
     66c:	8c 91       	ld	r24, X
     66e:	12 97       	sbiw	r26, 0x02	; 2
     670:	13 96       	adiw	r26, 0x03	; 3
     672:	9c 91       	ld	r25, X
     674:	08 95       	ret

00000676 <trtGetDeadline>:

uint32_t trtGetDeadline(void) {
     676:	80 91 84 04 	lds	r24, 0x0484
     67a:	90 e0       	ldi	r25, 0x00	; 0
     67c:	2b e0       	ldi	r18, 0x0B	; 11
     67e:	30 e0       	ldi	r19, 0x00	; 0
     680:	82 9f       	mul	r24, r18
     682:	f0 01       	movw	r30, r0
     684:	83 9f       	mul	r24, r19
     686:	f0 0d       	add	r31, r0
     688:	92 9f       	mul	r25, r18
     68a:	f0 0d       	add	r31, r0
     68c:	11 24       	eor	r1, r1
     68e:	ed 57       	subi	r30, 0x7D	; 125
     690:	fb 4f       	sbci	r31, 0xFB	; 251
     692:	df 01       	movw	r26, r30
     694:	18 96       	adiw	r26, 0x08	; 8
     696:	60 85       	ldd	r22, Z+8	; 0x08
     698:	11 96       	adiw	r26, 0x01	; 1
     69a:	7c 91       	ld	r23, X
     69c:	11 97       	sbiw	r26, 0x01	; 1
  return kernel.tasks[kernel.running].deadline;
}
     69e:	12 96       	adiw	r26, 0x02	; 2
     6a0:	8c 91       	ld	r24, X
     6a2:	12 97       	sbiw	r26, 0x02	; 2
     6a4:	13 96       	adiw	r26, 0x03	; 3
     6a6:	9c 91       	ld	r25, X
     6a8:	08 95       	ret

000006aa <trtTerminate>:

void trtTerminate(void) {

  cli();
     6aa:	f8 94       	cli

  kernel.tasks[kernel.running].state = TERMINATED;
     6ac:	80 91 84 04 	lds	r24, 0x0484
     6b0:	90 e0       	ldi	r25, 0x00	; 0
     6b2:	2b e0       	ldi	r18, 0x0B	; 11
     6b4:	30 e0       	ldi	r19, 0x00	; 0
     6b6:	82 9f       	mul	r24, r18
     6b8:	f0 01       	movw	r30, r0
     6ba:	83 9f       	mul	r24, r19
     6bc:	f0 0d       	add	r31, r0
     6be:	92 9f       	mul	r25, r18
     6c0:	f0 0d       	add	r31, r0
     6c2:	11 24       	eor	r1, r1
     6c4:	ed 57       	subi	r30, 0x7D	; 125
     6c6:	fb 4f       	sbci	r31, 0xFB	; 251
     6c8:	14 86       	std	Z+12, r1	; 0x0c

  // call interrupt handler to schedule
  TIMER1_COMPA_vect();
     6ca:	0e 94 97 00 	call	0x12e	; 0x12e <__vector_13>
}
     6ce:	08 95       	ret

000006d0 <trtAccept>:
  //struct task *t;
  uint8_t *s;
  uint8_t temp ;
  //t = &kernel.tasks[kernel.running];

  cli(); // disable interrupts
     6d0:	f8 94       	cli

  s = &kernel.semaphores[semnbr-1];
     6d2:	e8 2f       	mov	r30, r24
     6d4:	f0 e0       	ldi	r31, 0x00	; 0
     6d6:	e5 54       	subi	r30, 0x45	; 69
     6d8:	fb 4f       	sbci	r31, 0xFB	; 251
  temp = *s ;
     6da:	80 81       	ld	r24, Z
  if ((*s) > 0) {
     6dc:	88 23       	and	r24, r24
     6de:	19 f0       	breq	.+6      	; 0x6e6 <trtAccept+0x16>
    (*s)--;
     6e0:	81 50       	subi	r24, 0x01	; 1
     6e2:	80 83       	st	Z, r24
     6e4:	8f 5f       	subi	r24, 0xFF	; 255
  } 
  sei(); // reenable interrupts
     6e6:	78 94       	sei
  return temp ;
}
     6e8:	08 95       	ret

000006ea <trt_uart_init>:
{
#if F_CPU < 2000000UL && defined(U2X)
  UCSR0A = _BV(U2X);             /* improve baud rate error by using 2x clk */
  UBRR0L = (F_CPU / (8UL * UART_BAUD)) - 1;
#else
  UBRR0L = (F_CPU / (16UL * UART_BAUD)) - 1;
     6ea:	87 e6       	ldi	r24, 0x67	; 103
     6ec:	80 93 c4 00 	sts	0x00C4, r24
#endif
  UCSR0B = _BV(TXEN0) | _BV(RXEN0); /* tx/rx enable */
     6f0:	e1 ec       	ldi	r30, 0xC1	; 193
     6f2:	f0 e0       	ldi	r31, 0x00	; 0
     6f4:	88 e1       	ldi	r24, 0x18	; 24
     6f6:	80 83       	st	Z, r24
  
  //Set up circular buffer state variables
  tx_in = 0;
     6f8:	10 92 99 03 	sts	0x0399, r1
     6fc:	10 92 98 03 	sts	0x0398, r1
  tx_out = 0;
     700:	10 92 9b 03 	sts	0x039B, r1
     704:	10 92 9a 03 	sts	0x039A, r1

  //enable receive ISR -- added for TRT
  UCSR0B |= (1<<RXCIE0) ;
     708:	80 81       	ld	r24, Z
     70a:	80 68       	ori	r24, 0x80	; 128
     70c:	80 83       	st	Z, r24
}
     70e:	08 95       	ret

00000710 <__vector_21>:



ISR( USART0_UDRE_vect )
{
     710:	1f 92       	push	r1
     712:	0f 92       	push	r0
     714:	0f b6       	in	r0, 0x3f	; 63
     716:	0f 92       	push	r0
     718:	0b b6       	in	r0, 0x3b	; 59
     71a:	0f 92       	push	r0
     71c:	11 24       	eor	r1, r1
     71e:	2f 93       	push	r18
     720:	3f 93       	push	r19
     722:	8f 93       	push	r24
     724:	9f 93       	push	r25
     726:	ef 93       	push	r30
     728:	ff 93       	push	r31
  if( tx_in == tx_out ){		// nothing to send
     72a:	20 91 98 03 	lds	r18, 0x0398
     72e:	30 91 99 03 	lds	r19, 0x0399
     732:	80 91 9a 03 	lds	r24, 0x039A
     736:	90 91 9b 03 	lds	r25, 0x039B
     73a:	28 17       	cp	r18, r24
     73c:	39 07       	cpc	r19, r25
     73e:	31 f4       	brne	.+12     	; 0x74c <__vector_21+0x3c>
    UCSR0B &= ~(1 << UDRIE0);	// disable TX interrupt
     740:	80 91 c1 00 	lds	r24, 0x00C1
     744:	8f 7d       	andi	r24, 0xDF	; 223
     746:	80 93 c1 00 	sts	0x00C1, r24
     74a:	1d c0       	rjmp	.+58     	; 0x786 <__vector_21+0x76>
    //return;
  }
  else {
  	UDR0 = tx_buff[tx_out];
     74c:	e0 91 9a 03 	lds	r30, 0x039A
     750:	f0 91 9b 03 	lds	r31, 0x039B
     754:	e4 56       	subi	r30, 0x64	; 100
     756:	fc 4f       	sbci	r31, 0xFC	; 252
     758:	80 81       	ld	r24, Z
     75a:	80 93 c6 00 	sts	0x00C6, r24
  	tx_out++;
     75e:	80 91 9a 03 	lds	r24, 0x039A
     762:	90 91 9b 03 	lds	r25, 0x039B
     766:	01 96       	adiw	r24, 0x01	; 1
     768:	90 93 9b 03 	sts	0x039B, r25
     76c:	80 93 9a 03 	sts	0x039A, r24
  	if (tx_out == TX_BUF_SIZE) tx_out = 0;
     770:	80 91 9a 03 	lds	r24, 0x039A
     774:	90 91 9b 03 	lds	r25, 0x039B
     778:	88 3c       	cpi	r24, 0xC8	; 200
     77a:	91 05       	cpc	r25, r1
     77c:	21 f4       	brne	.+8      	; 0x786 <__vector_21+0x76>
     77e:	10 92 9b 03 	sts	0x039B, r1
     782:	10 92 9a 03 	sts	0x039A, r1
  }
}
     786:	ff 91       	pop	r31
     788:	ef 91       	pop	r30
     78a:	9f 91       	pop	r25
     78c:	8f 91       	pop	r24
     78e:	3f 91       	pop	r19
     790:	2f 91       	pop	r18
     792:	0f 90       	pop	r0
     794:	0b be       	out	0x3b, r0	; 59
     796:	0f 90       	pop	r0
     798:	0f be       	out	0x3f, r0	; 63
     79a:	0f 90       	pop	r0
     79c:	1f 90       	pop	r1
     79e:	18 95       	reti

000007a0 <uart_putchar>:

int uart_putchar(char c, FILE *stream) {
     7a0:	1f 93       	push	r17
     7a2:	18 2f       	mov	r17, r24
  if (c == '\n') uart_putchar('\r', stream);
     7a4:	8a 30       	cpi	r24, 0x0A	; 10
     7a6:	19 f4       	brne	.+6      	; 0x7ae <uart_putchar+0xe>
     7a8:	8d e0       	ldi	r24, 0x0D	; 13
     7aa:	0e 94 d0 03 	call	0x7a0	; 0x7a0 <uart_putchar>
  char i = tx_in;
     7ae:	80 91 98 03 	lds	r24, 0x0398
     7b2:	90 91 99 03 	lds	r25, 0x0399
  i++;
     7b6:	8f 5f       	subi	r24, 0xFF	; 255
  if (i == TX_BUF_SIZE) i = 0;
     7b8:	88 3c       	cpi	r24, 0xC8	; 200
     7ba:	09 f4       	brne	.+2      	; 0x7be <uart_putchar+0x1e>
     7bc:	80 e0       	ldi	r24, 0x00	; 0
  tx_buff[tx_in] = c;
     7be:	e0 91 98 03 	lds	r30, 0x0398
     7c2:	f0 91 99 03 	lds	r31, 0x0399
     7c6:	e4 56       	subi	r30, 0x64	; 100
     7c8:	fc 4f       	sbci	r31, 0xFC	; 252
     7ca:	10 83       	st	Z, r17
  while( i == tx_out);		// until at least one byte free
     7cc:	28 2f       	mov	r18, r24
     7ce:	30 e0       	ldi	r19, 0x00	; 0
     7d0:	80 91 9a 03 	lds	r24, 0x039A
     7d4:	90 91 9b 03 	lds	r25, 0x039B
     7d8:	28 17       	cp	r18, r24
     7da:	39 07       	cpc	r19, r25
     7dc:	c9 f3       	breq	.-14     	; 0x7d0 <uart_putchar+0x30>
					// tx_out modified by interrupt !
  tx_in = i;
     7de:	30 93 99 03 	sts	0x0399, r19
     7e2:	20 93 98 03 	sts	0x0398, r18
  UCSR0B |= (1 << UDRIE0);  // enable TX interrupt
     7e6:	80 91 c1 00 	lds	r24, 0x00C1
     7ea:	80 62       	ori	r24, 0x20	; 32
     7ec:	80 93 c1 00 	sts	0x00C1, r24
  return 0;
 }
     7f0:	80 e0       	ldi	r24, 0x00	; 0
     7f2:	90 e0       	ldi	r25, 0x00	; 0
     7f4:	1f 91       	pop	r17
     7f6:	08 95       	ret

000007f8 <__vector_20>:
 */

 // --- added for TRT ------------
uint8_t trt_rx_c;

ISR(USART0_RX_vect) {
     7f8:	1f 92       	push	r1
     7fa:	0f 92       	push	r0
     7fc:	0f b6       	in	r0, 0x3f	; 63
     7fe:	0f 92       	push	r0
     800:	0b b6       	in	r0, 0x3b	; 59
     802:	0f 92       	push	r0
     804:	11 24       	eor	r1, r1
     806:	2f 93       	push	r18
     808:	3f 93       	push	r19
     80a:	4f 93       	push	r20
     80c:	5f 93       	push	r21
     80e:	6f 93       	push	r22
     810:	7f 93       	push	r23
     812:	8f 93       	push	r24
     814:	9f 93       	push	r25
     816:	af 93       	push	r26
     818:	bf 93       	push	r27
     81a:	ef 93       	push	r30
     81c:	ff 93       	push	r31
	trt_rx_c = UDR0;
     81e:	80 91 c6 00 	lds	r24, 0x00C6
     822:	80 93 ce 04 	sts	0x04CE, r24
	trtSignal(SEM_RX_ISR_SIGNAL) ;
     826:	81 e0       	ldi	r24, 0x01	; 1
     828:	0e 94 9f 02 	call	0x53e	; 0x53e <trtSignal>
}
     82c:	ff 91       	pop	r31
     82e:	ef 91       	pop	r30
     830:	bf 91       	pop	r27
     832:	af 91       	pop	r26
     834:	9f 91       	pop	r25
     836:	8f 91       	pop	r24
     838:	7f 91       	pop	r23
     83a:	6f 91       	pop	r22
     83c:	5f 91       	pop	r21
     83e:	4f 91       	pop	r20
     840:	3f 91       	pop	r19
     842:	2f 91       	pop	r18
     844:	0f 90       	pop	r0
     846:	0b be       	out	0x3b, r0	; 59
     848:	0f 90       	pop	r0
     84a:	0f be       	out	0x3f, r0	; 63
     84c:	0f 90       	pop	r0
     84e:	1f 90       	pop	r1
     850:	18 95       	reti

00000852 <uart_getchar>:
// --- end addition --------------

int
uart_getchar(FILE *stream)
{
     852:	ef 92       	push	r14
     854:	ff 92       	push	r15
     856:	0f 93       	push	r16
     858:	1f 93       	push	r17
     85a:	cf 93       	push	r28
     85c:	df 93       	push	r29
     85e:	7c 01       	movw	r14, r24
  uint8_t c;
  char *cp, *cp2;
  static char b[RX_BUFSIZE];
  static char *rxp;

  if (rxp == 0)
     860:	80 91 46 03 	lds	r24, 0x0346
     864:	90 91 47 03 	lds	r25, 0x0347
     868:	89 2b       	or	r24, r25
     86a:	09 f0       	breq	.+2      	; 0x86e <uart_getchar+0x1c>
     86c:	a1 c0       	rjmp	.+322    	; 0x9b0 <uart_getchar+0x15e>
     86e:	08 e4       	ldi	r16, 0x48	; 72
     870:	13 e0       	ldi	r17, 0x03	; 3
    for (cp = b;;)
      {
	// --- trtWait added instead of loop_until wait
	trtWait(SEM_RX_ISR_SIGNAL) ; //loop_until_bit_is_set(UCSR0A, RXC0)
     872:	81 e0       	ldi	r24, 0x01	; 1
     874:	0e 94 7f 02 	call	0x4fe	; 0x4fe <trtWait>
	if (UCSR0A & _BV(FE0))
     878:	80 91 c0 00 	lds	r24, 0x00C0
     87c:	84 ff       	sbrs	r24, 4
     87e:	03 c0       	rjmp	.+6      	; 0x886 <uart_getchar+0x34>
     880:	2e ef       	ldi	r18, 0xFE	; 254
     882:	3f ef       	ldi	r19, 0xFF	; 255
     884:	a9 c0       	rjmp	.+338    	; 0x9d8 <uart_getchar+0x186>
	  return _FDEV_EOF;
	if (UCSR0A & _BV(DOR0))
     886:	80 91 c0 00 	lds	r24, 0x00C0
     88a:	83 fd       	sbrc	r24, 3
     88c:	a3 c0       	rjmp	.+326    	; 0x9d4 <uart_getchar+0x182>
	  return _FDEV_ERR;
	// -- added to take char from ISR ---
	  c = trt_rx_c ; //c = UDR0; -- CHANGED
     88e:	90 91 ce 04 	lds	r25, 0x04CE

	/* behaviour similar to Unix stty ICRNL */
	if (c == '\r')
     892:	9d 30       	cpi	r25, 0x0D	; 13
     894:	11 f0       	breq	.+4      	; 0x89a <uart_getchar+0x48>
	  c = '\n';
	if (c == '\n')
     896:	9a 30       	cpi	r25, 0x0A	; 10
     898:	81 f4       	brne	.+32     	; 0x8ba <uart_getchar+0x68>
	  {
	    *cp = c;
     89a:	8a e0       	ldi	r24, 0x0A	; 10
     89c:	f8 01       	movw	r30, r16
     89e:	80 83       	st	Z, r24
	    uart_putchar(c, stream);
     8a0:	b7 01       	movw	r22, r14
     8a2:	0e 94 d0 03 	call	0x7a0	; 0x7a0 <uart_putchar>
	    rxp = b;
     8a6:	88 e4       	ldi	r24, 0x48	; 72
     8a8:	93 e0       	ldi	r25, 0x03	; 3
     8aa:	90 93 47 03 	sts	0x0347, r25
     8ae:	80 93 46 03 	sts	0x0346, r24
		// --- added for TRT to signal string-end
		trtSignal(SEM_STRING_DONE); //added--to signal end of string
     8b2:	82 e0       	ldi	r24, 0x02	; 2
     8b4:	0e 94 9f 02 	call	0x53e	; 0x53e <trtSignal>
     8b8:	7b c0       	rjmp	.+246    	; 0x9b0 <uart_getchar+0x15e>
	    break;
	  }
	else if (c == '\t')
     8ba:	99 30       	cpi	r25, 0x09	; 9
     8bc:	09 f4       	brne	.+2      	; 0x8c0 <uart_getchar+0x6e>
     8be:	90 e2       	ldi	r25, 0x20	; 32
	  c = ' ';

	if ((c >= (uint8_t)' ' && c <= (uint8_t)'\x7e') ||
     8c0:	89 2f       	mov	r24, r25
     8c2:	80 52       	subi	r24, 0x20	; 32
     8c4:	8f 35       	cpi	r24, 0x5F	; 95
     8c6:	10 f0       	brcs	.+4      	; 0x8cc <uart_getchar+0x7a>
     8c8:	90 3a       	cpi	r25, 0xA0	; 160
     8ca:	70 f0       	brcs	.+28     	; 0x8e8 <uart_getchar+0x96>
	    c >= (uint8_t)'\xa0')
	  {
	    if (cp == b + RX_BUFSIZE - 1)
     8cc:	f3 e0       	ldi	r31, 0x03	; 3
     8ce:	07 39       	cpi	r16, 0x97	; 151
     8d0:	1f 07       	cpc	r17, r31
     8d2:	11 f4       	brne	.+4      	; 0x8d8 <uart_getchar+0x86>
	      uart_putchar('\a', stream);
     8d4:	87 e0       	ldi	r24, 0x07	; 7
     8d6:	04 c0       	rjmp	.+8      	; 0x8e0 <uart_getchar+0x8e>
	    else
	      {
		*cp++ = c;
     8d8:	f8 01       	movw	r30, r16
     8da:	91 93       	st	Z+, r25
     8dc:	8f 01       	movw	r16, r30
		uart_putchar(c, stream);
     8de:	89 2f       	mov	r24, r25
     8e0:	b7 01       	movw	r22, r14
     8e2:	0e 94 d0 03 	call	0x7a0	; 0x7a0 <uart_putchar>
     8e6:	c5 cf       	rjmp	.-118    	; 0x872 <uart_getchar+0x20>
	      }
	    continue;
	  }

	switch (c)
     8e8:	92 31       	cpi	r25, 0x12	; 18
     8ea:	39 f1       	breq	.+78     	; 0x93a <uart_getchar+0xe8>
     8ec:	93 31       	cpi	r25, 0x13	; 19
     8ee:	38 f4       	brcc	.+14     	; 0x8fe <uart_getchar+0xac>
     8f0:	93 30       	cpi	r25, 0x03	; 3
     8f2:	09 f4       	brne	.+2      	; 0x8f6 <uart_getchar+0xa4>
     8f4:	6f c0       	rjmp	.+222    	; 0x9d4 <uart_getchar+0x182>
     8f6:	98 30       	cpi	r25, 0x08	; 8
     8f8:	09 f0       	breq	.+2      	; 0x8fc <uart_getchar+0xaa>
     8fa:	bb cf       	rjmp	.-138    	; 0x872 <uart_getchar+0x20>
     8fc:	09 c0       	rjmp	.+18     	; 0x910 <uart_getchar+0xbe>
     8fe:	97 31       	cpi	r25, 0x17	; 23
     900:	09 f4       	brne	.+2      	; 0x904 <uart_getchar+0xb2>
     902:	4b c0       	rjmp	.+150    	; 0x99a <uart_getchar+0x148>
     904:	9f 37       	cpi	r25, 0x7F	; 127
     906:	21 f0       	breq	.+8      	; 0x910 <uart_getchar+0xbe>
     908:	95 31       	cpi	r25, 0x15	; 21
     90a:	09 f0       	breq	.+2      	; 0x90e <uart_getchar+0xbc>
     90c:	b2 cf       	rjmp	.-156    	; 0x872 <uart_getchar+0x20>
     90e:	32 c0       	rjmp	.+100    	; 0x974 <uart_getchar+0x122>
	  case 'c' & 0x1f:
	    return -1;

	  case '\b':
	  case '\x7f':
	    if (cp > b)
     910:	f3 e0       	ldi	r31, 0x03	; 3
     912:	08 34       	cpi	r16, 0x48	; 72
     914:	1f 07       	cpc	r17, r31
     916:	09 f0       	breq	.+2      	; 0x91a <uart_getchar+0xc8>
     918:	08 f4       	brcc	.+2      	; 0x91c <uart_getchar+0xca>
     91a:	ab cf       	rjmp	.-170    	; 0x872 <uart_getchar+0x20>
	      {
		uart_putchar('\b', stream);
     91c:	88 e0       	ldi	r24, 0x08	; 8
     91e:	b7 01       	movw	r22, r14
     920:	0e 94 d0 03 	call	0x7a0	; 0x7a0 <uart_putchar>
		uart_putchar(' ', stream);
     924:	80 e2       	ldi	r24, 0x20	; 32
     926:	b7 01       	movw	r22, r14
     928:	0e 94 d0 03 	call	0x7a0	; 0x7a0 <uart_putchar>
		uart_putchar('\b', stream);
     92c:	88 e0       	ldi	r24, 0x08	; 8
     92e:	b7 01       	movw	r22, r14
     930:	0e 94 d0 03 	call	0x7a0	; 0x7a0 <uart_putchar>
		cp--;
     934:	01 50       	subi	r16, 0x01	; 1
     936:	10 40       	sbci	r17, 0x00	; 0
     938:	9c cf       	rjmp	.-200    	; 0x872 <uart_getchar+0x20>
	      }
	    break;

	  case 'r' & 0x1f:
	    uart_putchar('\r', stream);
     93a:	8d e0       	ldi	r24, 0x0D	; 13
     93c:	b7 01       	movw	r22, r14
     93e:	0e 94 d0 03 	call	0x7a0	; 0x7a0 <uart_putchar>
     942:	c8 e4       	ldi	r28, 0x48	; 72
     944:	d3 e0       	ldi	r29, 0x03	; 3
     946:	04 c0       	rjmp	.+8      	; 0x950 <uart_getchar+0xfe>
	    for (cp2 = b; cp2 < cp; cp2++)
	      uart_putchar(*cp2, stream);
     948:	89 91       	ld	r24, Y+
     94a:	b7 01       	movw	r22, r14
     94c:	0e 94 d0 03 	call	0x7a0	; 0x7a0 <uart_putchar>
	      }
	    break;

	  case 'r' & 0x1f:
	    uart_putchar('\r', stream);
	    for (cp2 = b; cp2 < cp; cp2++)
     950:	c0 17       	cp	r28, r16
     952:	d1 07       	cpc	r29, r17
     954:	c8 f3       	brcs	.-14     	; 0x948 <uart_getchar+0xf6>
     956:	8d cf       	rjmp	.-230    	; 0x872 <uart_getchar+0x20>
	    break;

	  case 'u' & 0x1f:
	    while (cp > b)
	      {
		uart_putchar('\b', stream);
     958:	88 e0       	ldi	r24, 0x08	; 8
     95a:	b7 01       	movw	r22, r14
     95c:	0e 94 d0 03 	call	0x7a0	; 0x7a0 <uart_putchar>
		uart_putchar(' ', stream);
     960:	80 e2       	ldi	r24, 0x20	; 32
     962:	b7 01       	movw	r22, r14
     964:	0e 94 d0 03 	call	0x7a0	; 0x7a0 <uart_putchar>
		uart_putchar('\b', stream);
     968:	88 e0       	ldi	r24, 0x08	; 8
     96a:	b7 01       	movw	r22, r14
     96c:	0e 94 d0 03 	call	0x7a0	; 0x7a0 <uart_putchar>
		cp--;
     970:	01 50       	subi	r16, 0x01	; 1
     972:	10 40       	sbci	r17, 0x00	; 0
	    for (cp2 = b; cp2 < cp; cp2++)
	      uart_putchar(*cp2, stream);
	    break;

	  case 'u' & 0x1f:
	    while (cp > b)
     974:	83 e0       	ldi	r24, 0x03	; 3
     976:	08 34       	cpi	r16, 0x48	; 72
     978:	18 07       	cpc	r17, r24
     97a:	09 f0       	breq	.+2      	; 0x97e <uart_getchar+0x12c>
     97c:	68 f7       	brcc	.-38     	; 0x958 <uart_getchar+0x106>
     97e:	79 cf       	rjmp	.-270    	; 0x872 <uart_getchar+0x20>
	    break;

	  case 'w' & 0x1f:
	    while (cp > b && cp[-1] != ' ')
	      {
		uart_putchar('\b', stream);
     980:	88 e0       	ldi	r24, 0x08	; 8
     982:	b7 01       	movw	r22, r14
     984:	0e 94 d0 03 	call	0x7a0	; 0x7a0 <uart_putchar>
		uart_putchar(' ', stream);
     988:	80 e2       	ldi	r24, 0x20	; 32
     98a:	b7 01       	movw	r22, r14
     98c:	0e 94 d0 03 	call	0x7a0	; 0x7a0 <uart_putchar>
		uart_putchar('\b', stream);
     990:	88 e0       	ldi	r24, 0x08	; 8
     992:	b7 01       	movw	r22, r14
     994:	0e 94 d0 03 	call	0x7a0	; 0x7a0 <uart_putchar>
     998:	8e 01       	movw	r16, r28
		cp--;
	      }
	    break;

	  case 'w' & 0x1f:
	    while (cp > b && cp[-1] != ' ')
     99a:	e3 e0       	ldi	r30, 0x03	; 3
     99c:	08 34       	cpi	r16, 0x48	; 72
     99e:	1e 07       	cpc	r17, r30
     9a0:	09 f0       	breq	.+2      	; 0x9a4 <uart_getchar+0x152>
     9a2:	08 f4       	brcc	.+2      	; 0x9a6 <uart_getchar+0x154>
     9a4:	66 cf       	rjmp	.-308    	; 0x872 <uart_getchar+0x20>
     9a6:	e8 01       	movw	r28, r16
     9a8:	8a 91       	ld	r24, -Y
     9aa:	80 32       	cpi	r24, 0x20	; 32
     9ac:	49 f7       	brne	.-46     	; 0x980 <uart_getchar+0x12e>
     9ae:	61 cf       	rjmp	.-318    	; 0x872 <uart_getchar+0x20>
	      }
	    break;
	  }
      }

  c = *rxp++;
     9b0:	e0 91 46 03 	lds	r30, 0x0346
     9b4:	f0 91 47 03 	lds	r31, 0x0347
     9b8:	81 91       	ld	r24, Z+
     9ba:	f0 93 47 03 	sts	0x0347, r31
     9be:	e0 93 46 03 	sts	0x0346, r30
  if (c == '\n')
     9c2:	8a 30       	cpi	r24, 0x0A	; 10
     9c4:	21 f4       	brne	.+8      	; 0x9ce <uart_getchar+0x17c>
    rxp = 0;
     9c6:	10 92 47 03 	sts	0x0347, r1
     9ca:	10 92 46 03 	sts	0x0346, r1

  return c;
     9ce:	28 2f       	mov	r18, r24
     9d0:	30 e0       	ldi	r19, 0x00	; 0
     9d2:	02 c0       	rjmp	.+4      	; 0x9d8 <uart_getchar+0x186>
     9d4:	2f ef       	ldi	r18, 0xFF	; 255
     9d6:	3f ef       	ldi	r19, 0xFF	; 255
}
     9d8:	c9 01       	movw	r24, r18
     9da:	df 91       	pop	r29
     9dc:	cf 91       	pop	r28
     9de:	1f 91       	pop	r17
     9e0:	0f 91       	pop	r16
     9e2:	ff 90       	pop	r15
     9e4:	ef 90       	pop	r14
     9e6:	08 95       	ret

000009e8 <LCDsendChar>:
void LCDsendChar(uint8_t ch)		//Sends Char to LCD
{

#ifdef LCD_4bit
	//4 bit part
	LDP=(ch&0b11110000);
     9e8:	28 2f       	mov	r18, r24
     9ea:	20 7f       	andi	r18, 0xF0	; 240
     9ec:	28 b9       	out	0x08, r18	; 8
	LCP|=1<<LCD_RS;
     9ee:	40 9a       	sbi	0x08, 0	; 8
	LCP|=1<<LCD_E;		
     9f0:	42 9a       	sbi	0x08, 2	; 8
    milliseconds can be achieved.
 */
void
_delay_loop_2(uint16_t __count)
{
	__asm__ volatile (
     9f2:	20 e4       	ldi	r18, 0x40	; 64
     9f4:	3f e1       	ldi	r19, 0x1F	; 31
     9f6:	f9 01       	movw	r30, r18
     9f8:	31 97       	sbiw	r30, 0x01	; 1
     9fa:	f1 f7       	brne	.-4      	; 0x9f8 <LCDsendChar+0x10>
	_delay_ms(2);
	LCP&=~(1<<LCD_E);	
     9fc:	42 98       	cbi	0x08, 2	; 8
	LCP&=~(1<<LCD_RS);
     9fe:	40 98       	cbi	0x08, 0	; 8
     a00:	f9 01       	movw	r30, r18
     a02:	31 97       	sbiw	r30, 0x01	; 1
     a04:	f1 f7       	brne	.-4      	; 0xa02 <LCDsendChar+0x1a>
	_delay_ms(2);
	LDP=((ch&0b00001111)<<4);
     a06:	90 e0       	ldi	r25, 0x00	; 0
     a08:	74 e0       	ldi	r23, 0x04	; 4
     a0a:	88 0f       	add	r24, r24
     a0c:	99 1f       	adc	r25, r25
     a0e:	7a 95       	dec	r23
     a10:	e1 f7       	brne	.-8      	; 0xa0a <LCDsendChar+0x22>
     a12:	88 b9       	out	0x08, r24	; 8
	LCP|=1<<LCD_RS;
     a14:	40 9a       	sbi	0x08, 0	; 8
	LCP|=1<<LCD_E;		
     a16:	42 9a       	sbi	0x08, 2	; 8
     a18:	c9 01       	movw	r24, r18
     a1a:	01 97       	sbiw	r24, 0x01	; 1
     a1c:	f1 f7       	brne	.-4      	; 0xa1a <LCDsendChar+0x32>
	_delay_ms(2);
	LCP&=~(1<<LCD_E);	
     a1e:	42 98       	cbi	0x08, 2	; 8
	LCP&=~(1<<LCD_RS);
     a20:	40 98       	cbi	0x08, 0	; 8
     a22:	c9 01       	movw	r24, r18
     a24:	01 97       	sbiw	r24, 0x01	; 1
     a26:	f1 f7       	brne	.-4      	; 0xa24 <LCDsendChar+0x3c>
	_delay_ms(2);
	LCP&=~(1<<LCD_E);	
	LCP&=~(1<<LCD_RS);
	_delay_ms(2);
#endif
}
     a28:	08 95       	ret

00000a2a <LCDsendCommand>:
void LCDsendCommand(uint8_t cmd)	//Sends Command to LCD
{
#ifdef LCD_4bit	
	//4 bit part
	LDP=(cmd&0b11110000);
     a2a:	28 2f       	mov	r18, r24
     a2c:	20 7f       	andi	r18, 0xF0	; 240
     a2e:	28 b9       	out	0x08, r18	; 8
	LCP|=1<<LCD_E;		
     a30:	42 9a       	sbi	0x08, 2	; 8
     a32:	20 e4       	ldi	r18, 0x40	; 64
     a34:	3f e1       	ldi	r19, 0x1F	; 31
     a36:	f9 01       	movw	r30, r18
     a38:	31 97       	sbiw	r30, 0x01	; 1
     a3a:	f1 f7       	brne	.-4      	; 0xa38 <LCDsendCommand+0xe>
	_delay_ms(2);
	LCP&=~(1<<LCD_E);
     a3c:	42 98       	cbi	0x08, 2	; 8
     a3e:	f9 01       	movw	r30, r18
     a40:	31 97       	sbiw	r30, 0x01	; 1
     a42:	f1 f7       	brne	.-4      	; 0xa40 <LCDsendCommand+0x16>
	_delay_ms(2);
	LDP=((cmd&0b00001111)<<4);	
     a44:	90 e0       	ldi	r25, 0x00	; 0
     a46:	e4 e0       	ldi	r30, 0x04	; 4
     a48:	88 0f       	add	r24, r24
     a4a:	99 1f       	adc	r25, r25
     a4c:	ea 95       	dec	r30
     a4e:	e1 f7       	brne	.-8      	; 0xa48 <LCDsendCommand+0x1e>
     a50:	88 b9       	out	0x08, r24	; 8
	LCP|=1<<LCD_E;		
     a52:	42 9a       	sbi	0x08, 2	; 8
     a54:	c9 01       	movw	r24, r18
     a56:	01 97       	sbiw	r24, 0x01	; 1
     a58:	f1 f7       	brne	.-4      	; 0xa56 <LCDsendCommand+0x2c>
	_delay_ms(2);
	LCP&=~(1<<LCD_E);
     a5a:	42 98       	cbi	0x08, 2	; 8
     a5c:	c9 01       	movw	r24, r18
     a5e:	01 97       	sbiw	r24, 0x01	; 1
     a60:	f1 f7       	brne	.-4      	; 0xa5e <LCDsendCommand+0x34>
	LCP|=1<<LCD_E;		
	_delay_ms(2);
	LCP&=~(1<<LCD_E);
	_delay_ms(2);	
#endif
}
     a62:	08 95       	ret

00000a64 <LCDclr>:

#endif
}			
void LCDclr(void)				//Clears LCD
{
	LCDsendCommand(1<<LCD_CLR);
     a64:	81 e0       	ldi	r24, 0x01	; 1
     a66:	0e 94 15 05 	call	0xa2a	; 0xa2a <LCDsendCommand>
}
     a6a:	08 95       	ret

00000a6c <LCDhome>:
void LCDhome(void)			//LCD cursor home
{
	LCDsendCommand(1<<LCD_HOME);
     a6c:	82 e0       	ldi	r24, 0x02	; 2
     a6e:	0e 94 15 05 	call	0xa2a	; 0xa2a <LCDsendCommand>
}
     a72:	08 95       	ret

00000a74 <LCDstring>:
void LCDstring(uint8_t* data, uint8_t nBytes)	//Outputs string to LCD
{
     a74:	0f 93       	push	r16
     a76:	1f 93       	push	r17
     a78:	cf 93       	push	r28
     a7a:	df 93       	push	r29
     a7c:	06 2f       	mov	r16, r22
register uint8_t i;

	// check to make sure we have a good pointer
	if (!data) return;
     a7e:	00 97       	sbiw	r24, 0x00	; 0
     a80:	49 f0       	breq	.+18     	; 0xa94 <LCDstring+0x20>
     a82:	ec 01       	movw	r28, r24
     a84:	10 e0       	ldi	r17, 0x00	; 0
     a86:	04 c0       	rjmp	.+8      	; 0xa90 <LCDstring+0x1c>

	// print data
	for(i=0; i<nBytes; i++)
	{
		LCDsendChar(data[i]);
     a88:	89 91       	ld	r24, Y+
     a8a:	0e 94 f4 04 	call	0x9e8	; 0x9e8 <LCDsendChar>

	// check to make sure we have a good pointer
	if (!data) return;

	// print data
	for(i=0; i<nBytes; i++)
     a8e:	1f 5f       	subi	r17, 0xFF	; 255
     a90:	10 17       	cp	r17, r16
     a92:	d0 f3       	brcs	.-12     	; 0xa88 <LCDstring+0x14>
	{
		LCDsendChar(data[i]);
	}
}
     a94:	df 91       	pop	r29
     a96:	cf 91       	pop	r28
     a98:	1f 91       	pop	r17
     a9a:	0f 91       	pop	r16
     a9c:	08 95       	ret

00000a9e <LCDGotoXY>:
void LCDGotoXY(uint8_t x, uint8_t y)	//Cursor to X Y position
{
	register uint8_t DDRAMAddr;
	// remap lines into proper order
	switch(y)
     a9e:	62 30       	cpi	r22, 0x02	; 2
     aa0:	31 f0       	breq	.+12     	; 0xaae <LCDGotoXY+0x10>
     aa2:	63 30       	cpi	r22, 0x03	; 3
     aa4:	31 f0       	breq	.+12     	; 0xab2 <LCDGotoXY+0x14>
     aa6:	61 30       	cpi	r22, 0x01	; 1
     aa8:	29 f4       	brne	.+10     	; 0xab4 <LCDGotoXY+0x16>
	{
	case 0: DDRAMAddr = LCD_LINE0_DDRAMADDR+x; break;
	case 1: DDRAMAddr = LCD_LINE1_DDRAMADDR+x; break;
     aaa:	80 5c       	subi	r24, 0xC0	; 192
     aac:	03 c0       	rjmp	.+6      	; 0xab4 <LCDGotoXY+0x16>
	case 2: DDRAMAddr = LCD_LINE2_DDRAMADDR+x; break;
     aae:	8c 5e       	subi	r24, 0xEC	; 236
     ab0:	01 c0       	rjmp	.+2      	; 0xab4 <LCDGotoXY+0x16>
	case 3: DDRAMAddr = LCD_LINE3_DDRAMADDR+x; break;
     ab2:	8c 5a       	subi	r24, 0xAC	; 172
	default: DDRAMAddr = LCD_LINE0_DDRAMADDR+x;
	}
	// set data address
	LCDsendCommand(1<<LCD_DDRAM | DDRAMAddr);
     ab4:	80 68       	ori	r24, 0x80	; 128
     ab6:	0e 94 15 05 	call	0xa2a	; 0xa2a <LCDsendCommand>
	
}
     aba:	08 95       	ret

00000abc <CopyStringtoLCD>:
//Copies string from flash memory to LCD at x y position
//const uint8_t welcomeln1[] PROGMEM="AVR LCD DEMO\0";
//CopyStringtoLCD(welcomeln1, 3, 1);	
void CopyStringtoLCD(const uint8_t *FlashLoc, uint8_t x, uint8_t y)
{
     abc:	1f 93       	push	r17
     abe:	cf 93       	push	r28
     ac0:	df 93       	push	r29
     ac2:	ec 01       	movw	r28, r24
     ac4:	86 2f       	mov	r24, r22
	uint8_t i;
	LCDGotoXY(x,y);
     ac6:	64 2f       	mov	r22, r20
     ac8:	0e 94 4f 05 	call	0xa9e	; 0xa9e <LCDGotoXY>
     acc:	10 e0       	ldi	r17, 0x00	; 0
     ace:	03 c0       	rjmp	.+6      	; 0xad6 <CopyStringtoLCD+0x1a>
	for(i=0;(uint8_t)pgm_read_byte(&FlashLoc[i]);i++)
	{
		LCDsendChar((uint8_t)pgm_read_byte(&FlashLoc[i]));
     ad0:	0e 94 f4 04 	call	0x9e8	; 0x9e8 <LCDsendChar>
//CopyStringtoLCD(welcomeln1, 3, 1);	
void CopyStringtoLCD(const uint8_t *FlashLoc, uint8_t x, uint8_t y)
{
	uint8_t i;
	LCDGotoXY(x,y);
	for(i=0;(uint8_t)pgm_read_byte(&FlashLoc[i]);i++)
     ad4:	1f 5f       	subi	r17, 0xFF	; 255
     ad6:	fe 01       	movw	r30, r28
     ad8:	e1 0f       	add	r30, r17
     ada:	f1 1d       	adc	r31, r1
     adc:	84 91       	lpm	r24, Z+
     ade:	88 23       	and	r24, r24
     ae0:	b9 f7       	brne	.-18     	; 0xad0 <CopyStringtoLCD+0x14>
	{
		LCDsendChar((uint8_t)pgm_read_byte(&FlashLoc[i]));
	}
}
     ae2:	df 91       	pop	r29
     ae4:	cf 91       	pop	r28
     ae6:	1f 91       	pop	r17
     ae8:	08 95       	ret

00000aea <LCDdefinechar>:
0b00000000,
0b00000000
};
LCDdefinechar(backslash,0);
*/
void LCDdefinechar(const uint8_t *pc,uint8_t char_code){
     aea:	ef 92       	push	r14
     aec:	ff 92       	push	r15
     aee:	0f 93       	push	r16
     af0:	1f 93       	push	r17
     af2:	cf 93       	push	r28
     af4:	df 93       	push	r29
     af6:	7c 01       	movw	r14, r24
     af8:	16 2f       	mov	r17, r22
	uint8_t a, pcc;
	uint16_t i;
	a=(char_code<<3)|0x40;
     afa:	11 0f       	add	r17, r17
     afc:	11 0f       	add	r17, r17
     afe:	11 0f       	add	r17, r17
     b00:	10 64       	ori	r17, 0x40	; 64
     b02:	c0 e0       	ldi	r28, 0x00	; 0
     b04:	d0 e0       	ldi	r29, 0x00	; 0
	for (i=0; i<8; i++){
		pcc=pgm_read_byte(&pc[i]);
     b06:	f7 01       	movw	r30, r14
     b08:	ec 0f       	add	r30, r28
     b0a:	fd 1f       	adc	r31, r29
     b0c:	04 91       	lpm	r16, Z+
		LCDsendCommand(a++);
     b0e:	81 2f       	mov	r24, r17
     b10:	8c 0f       	add	r24, r28
     b12:	0e 94 15 05 	call	0xa2a	; 0xa2a <LCDsendCommand>
		LCDsendChar(pcc);
     b16:	80 2f       	mov	r24, r16
     b18:	0e 94 f4 04 	call	0x9e8	; 0x9e8 <LCDsendChar>
*/
void LCDdefinechar(const uint8_t *pc,uint8_t char_code){
	uint8_t a, pcc;
	uint16_t i;
	a=(char_code<<3)|0x40;
	for (i=0; i<8; i++){
     b1c:	21 96       	adiw	r28, 0x01	; 1
     b1e:	c8 30       	cpi	r28, 0x08	; 8
     b20:	d1 05       	cpc	r29, r1
     b22:	89 f7       	brne	.-30     	; 0xb06 <LCDdefinechar+0x1c>
		pcc=pgm_read_byte(&pc[i]);
		LCDsendCommand(a++);
		LCDsendChar(pcc);
		}
}
     b24:	df 91       	pop	r29
     b26:	cf 91       	pop	r28
     b28:	1f 91       	pop	r17
     b2a:	0f 91       	pop	r16
     b2c:	ff 90       	pop	r15
     b2e:	ef 90       	pop	r14
     b30:	08 95       	ret

00000b32 <LCDinit>:
	LCP&=~(1<<LCD_E);
	_delay_ms(2);	
#endif
}
void LCDinit(void)//Initializes LCD
{
     b32:	1f 93       	push	r17
     b34:	cf 93       	push	r28
     b36:	df 93       	push	r29
     b38:	80 e6       	ldi	r24, 0x60	; 96
     b3a:	9a ee       	ldi	r25, 0xEA	; 234
     b3c:	01 97       	sbiw	r24, 0x01	; 1
     b3e:	f1 f7       	brne	.-4      	; 0xb3c <LCDinit+0xa>
#ifdef LCD_4bit	
	//4 bit part
	_delay_ms(15);
	LDP=0x00;
     b40:	18 b8       	out	0x08, r1	; 8
	LCP=0x00;
     b42:	18 b8       	out	0x08, r1	; 8
	LDDR|=1<<LCD_D7|1<<LCD_D6|1<<LCD_D5|1<<LCD_D4;
     b44:	87 b1       	in	r24, 0x07	; 7
     b46:	80 6f       	ori	r24, 0xF0	; 240
     b48:	87 b9       	out	0x07, r24	; 7
	LCDR|=1<<LCD_E|1<<LCD_RW|1<<LCD_RS;
     b4a:	87 b1       	in	r24, 0x07	; 7
     b4c:	87 60       	ori	r24, 0x07	; 7
     b4e:	87 b9       	out	0x07, r24	; 7
   //---------one------
	LDP=0<<LCD_D7|0<<LCD_D6|1<<LCD_D5|1<<LCD_D4; //4 bit mode
     b50:	80 e3       	ldi	r24, 0x30	; 48
     b52:	88 b9       	out	0x08, r24	; 8
	LCP|=1<<LCD_E|0<<LCD_RW|0<<LCD_RS;		
     b54:	42 9a       	sbi	0x08, 2	; 8
     b56:	20 e4       	ldi	r18, 0x40	; 64
     b58:	3f e1       	ldi	r19, 0x1F	; 31
     b5a:	f9 01       	movw	r30, r18
     b5c:	31 97       	sbiw	r30, 0x01	; 1
     b5e:	f1 f7       	brne	.-4      	; 0xb5c <LCDinit+0x2a>
	_delay_ms(2);
	LCP&=~(1<<LCD_E);
     b60:	42 98       	cbi	0x08, 2	; 8
     b62:	f9 01       	movw	r30, r18
     b64:	31 97       	sbiw	r30, 0x01	; 1
     b66:	f1 f7       	brne	.-4      	; 0xb64 <LCDinit+0x32>
	_delay_ms(2);
	//-----------two-----------
	LDP=0<<LCD_D7|0<<LCD_D6|1<<LCD_D5|1<<LCD_D4; //4 bit mode
     b68:	88 b9       	out	0x08, r24	; 8
	LCP|=1<<LCD_E|0<<LCD_RW|0<<LCD_RS;		
     b6a:	42 9a       	sbi	0x08, 2	; 8
     b6c:	c9 01       	movw	r24, r18
     b6e:	01 97       	sbiw	r24, 0x01	; 1
     b70:	f1 f7       	brne	.-4      	; 0xb6e <LCDinit+0x3c>
	_delay_ms(2);
	LCP&=~(1<<LCD_E);
     b72:	42 98       	cbi	0x08, 2	; 8
     b74:	c9 01       	movw	r24, r18
     b76:	01 97       	sbiw	r24, 0x01	; 1
     b78:	f1 f7       	brne	.-4      	; 0xb76 <LCDinit+0x44>
	_delay_ms(2);
	//-------three-------------
	LDP=0<<LCD_D7|0<<LCD_D6|1<<LCD_D5|0<<LCD_D4; //4 bit mode
     b7a:	80 e2       	ldi	r24, 0x20	; 32
     b7c:	88 b9       	out	0x08, r24	; 8
	LCP|=1<<LCD_E|0<<LCD_RW|0<<LCD_RS;		
     b7e:	42 9a       	sbi	0x08, 2	; 8
     b80:	c9 01       	movw	r24, r18
     b82:	01 97       	sbiw	r24, 0x01	; 1
     b84:	f1 f7       	brne	.-4      	; 0xb82 <LCDinit+0x50>
	_delay_ms(2);
	LCP&=~(1<<LCD_E);
     b86:	42 98       	cbi	0x08, 2	; 8
     b88:	c9 01       	movw	r24, r18
     b8a:	01 97       	sbiw	r24, 0x01	; 1
     b8c:	f1 f7       	brne	.-4      	; 0xb8a <LCDinit+0x58>
	_delay_ms(2);
	//--------4 bit--dual line---------------
	LCDsendCommand(0b00101000);
     b8e:	88 e2       	ldi	r24, 0x28	; 40
     b90:	0e 94 15 05 	call	0xa2a	; 0xa2a <LCDsendCommand>
   //-----increment address, invisible cursor shift------
	LCDsendCommand(0b00001100);
     b94:	8c e0       	ldi	r24, 0x0C	; 12
     b96:	0e 94 15 05 	call	0xa2a	; 0xa2a <LCDsendCommand>
     b9a:	cc e8       	ldi	r28, 0x8C	; 140
     b9c:	d0 e0       	ldi	r29, 0x00	; 0
     b9e:	60 e0       	ldi	r22, 0x00	; 0
		//init 8 custom chars
	uint8_t ch=0, chn=0;
	while(ch<64)
	{
		LCDdefinechar((LcdCustomChar+ch),chn++);
     ba0:	16 2f       	mov	r17, r22
     ba2:	1f 5f       	subi	r17, 0xFF	; 255
     ba4:	ce 01       	movw	r24, r28
     ba6:	0e 94 75 05 	call	0xaea	; 0xaea <LCDdefinechar>
     baa:	28 96       	adiw	r28, 0x08	; 8
     bac:	61 2f       	mov	r22, r17
	LCDsendCommand(0b00101000);
   //-----increment address, invisible cursor shift------
	LCDsendCommand(0b00001100);
		//init 8 custom chars
	uint8_t ch=0, chn=0;
	while(ch<64)
     bae:	18 30       	cpi	r17, 0x08	; 8
     bb0:	b9 f7       	brne	.-18     	; 0xba0 <LCDinit+0x6e>
		LCDdefinechar((LcdCustomChar+ch),chn++);
		ch=ch+8;
	}

#endif
}			
     bb2:	df 91       	pop	r29
     bb4:	cf 91       	pop	r28
     bb6:	1f 91       	pop	r17
     bb8:	08 95       	ret

00000bba <LCDshiftLeft>:
		LCDsendChar(pcc);
		}
}

void LCDshiftLeft(uint8_t n)	//Scrol n of characters Right
{
     bba:	0f 93       	push	r16
     bbc:	1f 93       	push	r17
     bbe:	08 2f       	mov	r16, r24
     bc0:	10 e0       	ldi	r17, 0x00	; 0
     bc2:	04 c0       	rjmp	.+8      	; 0xbcc <LCDshiftLeft+0x12>
	for (uint8_t i=0;i<n;i++)
	{
		LCDsendCommand(0x1E);
     bc4:	8e e1       	ldi	r24, 0x1E	; 30
     bc6:	0e 94 15 05 	call	0xa2a	; 0xa2a <LCDsendCommand>
		}
}

void LCDshiftLeft(uint8_t n)	//Scrol n of characters Right
{
	for (uint8_t i=0;i<n;i++)
     bca:	1f 5f       	subi	r17, 0xFF	; 255
     bcc:	10 17       	cp	r17, r16
     bce:	d0 f3       	brcs	.-12     	; 0xbc4 <LCDshiftLeft+0xa>
	{
		LCDsendCommand(0x1E);
	}
}
     bd0:	1f 91       	pop	r17
     bd2:	0f 91       	pop	r16
     bd4:	08 95       	ret

00000bd6 <LCDshiftRight>:
void LCDshiftRight(uint8_t n)	//Scrol n of characters Left
{
     bd6:	0f 93       	push	r16
     bd8:	1f 93       	push	r17
     bda:	08 2f       	mov	r16, r24
     bdc:	10 e0       	ldi	r17, 0x00	; 0
     bde:	04 c0       	rjmp	.+8      	; 0xbe8 <LCDshiftRight+0x12>
	for (uint8_t i=0;i<n;i++)
	{
		LCDsendCommand(0x18);
     be0:	88 e1       	ldi	r24, 0x18	; 24
     be2:	0e 94 15 05 	call	0xa2a	; 0xa2a <LCDsendCommand>
		LCDsendCommand(0x1E);
	}
}
void LCDshiftRight(uint8_t n)	//Scrol n of characters Left
{
	for (uint8_t i=0;i<n;i++)
     be6:	1f 5f       	subi	r17, 0xFF	; 255
     be8:	10 17       	cp	r17, r16
     bea:	d0 f3       	brcs	.-12     	; 0xbe0 <LCDshiftRight+0xa>
	{
		LCDsendCommand(0x18);
	}
}
     bec:	1f 91       	pop	r17
     bee:	0f 91       	pop	r16
     bf0:	08 95       	ret

00000bf2 <LCDcursorOn>:
void LCDcursorOn(void) //displays LCD cursor
{
	LCDsendCommand(0x0E);
     bf2:	8e e0       	ldi	r24, 0x0E	; 14
     bf4:	0e 94 15 05 	call	0xa2a	; 0xa2a <LCDsendCommand>
}
     bf8:	08 95       	ret

00000bfa <LCDcursorOnBlink>:
void LCDcursorOnBlink(void)	//displays LCD blinking cursor
{
	LCDsendCommand(0x0F);
     bfa:	8f e0       	ldi	r24, 0x0F	; 15
     bfc:	0e 94 15 05 	call	0xa2a	; 0xa2a <LCDsendCommand>
}
     c00:	08 95       	ret

00000c02 <LCDcursorOFF>:
void LCDcursorOFF(void)	//turns OFF cursor
{
	LCDsendCommand(0x0C);
     c02:	8c e0       	ldi	r24, 0x0C	; 12
     c04:	0e 94 15 05 	call	0xa2a	; 0xa2a <LCDsendCommand>
}
     c08:	08 95       	ret

00000c0a <LCDblank>:
void LCDblank(void)		//blanks LCD
{
	LCDsendCommand(0x08);
     c0a:	88 e0       	ldi	r24, 0x08	; 8
     c0c:	0e 94 15 05 	call	0xa2a	; 0xa2a <LCDsendCommand>
}
     c10:	08 95       	ret

00000c12 <LCDvisible>:
void LCDvisible(void)		//Shows LCD
{
	LCDsendCommand(0x0C);
     c12:	8c e0       	ldi	r24, 0x0C	; 12
     c14:	0e 94 15 05 	call	0xa2a	; 0xa2a <LCDsendCommand>
}
     c18:	08 95       	ret

00000c1a <LCDcursorLeft>:
void LCDcursorLeft(uint8_t n)	//Moves cursor by n poisitions left
{
     c1a:	0f 93       	push	r16
     c1c:	1f 93       	push	r17
     c1e:	08 2f       	mov	r16, r24
     c20:	10 e0       	ldi	r17, 0x00	; 0
     c22:	04 c0       	rjmp	.+8      	; 0xc2c <LCDcursorLeft+0x12>
	for (uint8_t i=0;i<n;i++)
	{
		LCDsendCommand(0x10);
     c24:	80 e1       	ldi	r24, 0x10	; 16
     c26:	0e 94 15 05 	call	0xa2a	; 0xa2a <LCDsendCommand>
{
	LCDsendCommand(0x0C);
}
void LCDcursorLeft(uint8_t n)	//Moves cursor by n poisitions left
{
	for (uint8_t i=0;i<n;i++)
     c2a:	1f 5f       	subi	r17, 0xFF	; 255
     c2c:	10 17       	cp	r17, r16
     c2e:	d0 f3       	brcs	.-12     	; 0xc24 <LCDcursorLeft+0xa>
	{
		LCDsendCommand(0x10);
	}
}
     c30:	1f 91       	pop	r17
     c32:	0f 91       	pop	r16
     c34:	08 95       	ret

00000c36 <LCDcursorRight>:
void LCDcursorRight(uint8_t n)	//Moves cursor by n poisitions left
{
     c36:	0f 93       	push	r16
     c38:	1f 93       	push	r17
     c3a:	08 2f       	mov	r16, r24
     c3c:	10 e0       	ldi	r17, 0x00	; 0
     c3e:	04 c0       	rjmp	.+8      	; 0xc48 <LCDcursorRight+0x12>
	for (uint8_t i=0;i<n;i++)
	{
		LCDsendCommand(0x14);
     c40:	84 e1       	ldi	r24, 0x14	; 20
     c42:	0e 94 15 05 	call	0xa2a	; 0xa2a <LCDsendCommand>
		LCDsendCommand(0x10);
	}
}
void LCDcursorRight(uint8_t n)	//Moves cursor by n poisitions left
{
	for (uint8_t i=0;i<n;i++)
     c46:	1f 5f       	subi	r17, 0xFF	; 255
     c48:	10 17       	cp	r17, r16
     c4a:	d0 f3       	brcs	.-12     	; 0xc40 <LCDcursorRight+0xa>
	{
		LCDsendCommand(0x14);
	}
}
     c4c:	1f 91       	pop	r17
     c4e:	0f 91       	pop	r16
     c50:	08 95       	ret

00000c52 <LCDprogressBar>:
//adapted fro mAVRLIB
void LCDprogressBar(uint8_t progress, uint8_t maxprogress, uint8_t length)
{
     c52:	df 92       	push	r13
     c54:	ef 92       	push	r14
     c56:	ff 92       	push	r15
     c58:	0f 93       	push	r16
     c5a:	1f 93       	push	r17
     c5c:	cf 93       	push	r28
     c5e:	df 93       	push	r29
     c60:	d4 2e       	mov	r13, r20
	// ***note, LCD chars 0-5 must be programmed as the bar characters
	// char 0 = empty ... char 5 = full

	// total pixel length of bargraph equals length*PROGRESSPIXELS_PER_CHAR;
	// pixel length of bar itself is
	pixelprogress = ((progress*(length*PROGRESSPIXELS_PER_CHAR))/maxprogress);
     c62:	96 e0       	ldi	r25, 0x06	; 6
     c64:	89 9f       	mul	r24, r25
     c66:	c0 01       	movw	r24, r0
     c68:	11 24       	eor	r1, r1
     c6a:	24 2f       	mov	r18, r20
     c6c:	30 e0       	ldi	r19, 0x00	; 0
     c6e:	ac 01       	movw	r20, r24
     c70:	42 9f       	mul	r20, r18
     c72:	c0 01       	movw	r24, r0
     c74:	43 9f       	mul	r20, r19
     c76:	90 0d       	add	r25, r0
     c78:	52 9f       	mul	r21, r18
     c7a:	90 0d       	add	r25, r0
     c7c:	11 24       	eor	r1, r1
     c7e:	70 e0       	ldi	r23, 0x00	; 0
     c80:	0e 94 9d 0e 	call	0x1d3a	; 0x1d3a <__divmodhi4>
     c84:	eb 01       	movw	r28, r22
				c = 0;
			}
			else
			{
				// this is a partial block
				c = pixelprogress % PROGRESSPIXELS_PER_CHAR;
     c86:	cb 01       	movw	r24, r22
     c88:	66 e0       	ldi	r22, 0x06	; 6
     c8a:	70 e0       	ldi	r23, 0x00	; 0
     c8c:	0e 94 89 0e 	call	0x1d12	; 0x1d12 <__udivmodhi4>
     c90:	e8 2e       	mov	r14, r24
     c92:	ff 24       	eor	r15, r15
     c94:	00 e0       	ldi	r16, 0x00	; 0
     c96:	10 e0       	ldi	r17, 0x00	; 0
     c98:	12 c0       	rjmp	.+36     	; 0xcbe <LCDprogressBar+0x6c>
	// print exactly "length" characters
	for(i=0; i<length; i++)
	{
		// check if this is a full block, or partial or empty
		// (u16) cast is needed to avoid sign comparison warning
		if( ((i*(uint16_t)PROGRESSPIXELS_PER_CHAR)+5) > pixelprogress )
     c9a:	c8 01       	movw	r24, r16
     c9c:	05 96       	adiw	r24, 0x05	; 5
     c9e:	c8 17       	cp	r28, r24
     ca0:	d9 07       	cpc	r29, r25
     ca2:	10 f0       	brcs	.+4      	; 0xca8 <LCDprogressBar+0x56>
     ca4:	85 e0       	ldi	r24, 0x05	; 5
     ca6:	06 c0       	rjmp	.+12     	; 0xcb4 <LCDprogressBar+0x62>
		{
			// this is a partial or empty block
			if( ((i*(uint16_t)PROGRESSPIXELS_PER_CHAR)) > pixelprogress )
     ca8:	c0 17       	cp	r28, r16
     caa:	d1 07       	cpc	r29, r17
     cac:	10 f0       	brcs	.+4      	; 0xcb2 <LCDprogressBar+0x60>
     cae:	8e 2d       	mov	r24, r14
     cb0:	01 c0       	rjmp	.+2      	; 0xcb4 <LCDprogressBar+0x62>
     cb2:	80 e0       	ldi	r24, 0x00	; 0
			// this is a full block
			c = 5;
		}
		
		// write character to display
		LCDsendChar(c);
     cb4:	0e 94 f4 04 	call	0x9e8	; 0x9e8 <LCDsendChar>
	// total pixel length of bargraph equals length*PROGRESSPIXELS_PER_CHAR;
	// pixel length of bar itself is
	pixelprogress = ((progress*(length*PROGRESSPIXELS_PER_CHAR))/maxprogress);
	
	// print exactly "length" characters
	for(i=0; i<length; i++)
     cb8:	f3 94       	inc	r15
     cba:	0a 5f       	subi	r16, 0xFA	; 250
     cbc:	1f 4f       	sbci	r17, 0xFF	; 255
     cbe:	fd 14       	cp	r15, r13
     cc0:	60 f3       	brcs	.-40     	; 0xc9a <LCDprogressBar+0x48>
		
		// write character to display
		LCDsendChar(c);
	}

}
     cc2:	df 91       	pop	r29
     cc4:	cf 91       	pop	r28
     cc6:	1f 91       	pop	r17
     cc8:	0f 91       	pop	r16
     cca:	ff 90       	pop	r15
     ccc:	ef 90       	pop	r14
     cce:	df 90       	pop	r13
     cd0:	08 95       	ret

00000cd2 <minutes_button_changed>:


#include "analog_input.h"

//BUTTON CHANGE METHODS
char minutes_button_changed(struct ANALOG_INPUT * t){
     cd2:	fc 01       	movw	r30, r24
     cd4:	30 e0       	ldi	r19, 0x00	; 0
     cd6:	80 81       	ld	r24, Z
     cd8:	90 e0       	ldi	r25, 0x00	; 0
     cda:	21 81       	ldd	r18, Z+1	; 0x01
     cdc:	82 1b       	sub	r24, r18
     cde:	91 09       	sbc	r25, r1
     ce0:	44 96       	adiw	r24, 0x14	; 20
     ce2:	89 97       	sbiw	r24, 0x29	; 41
     ce4:	08 f0       	brcs	.+2      	; 0xce8 <minutes_button_changed+0x16>
     ce6:	31 e0       	ldi	r19, 0x01	; 1
	int delta = t->current_min_button - t->prev_min_button;
	return delta > 20 || delta < -20;
}
     ce8:	83 2f       	mov	r24, r19
     cea:	08 95       	ret

00000cec <go_button_changed>:

char go_button_changed(struct ANALOG_INPUT * t){
     cec:	fc 01       	movw	r30, r24
     cee:	30 e0       	ldi	r19, 0x00	; 0
     cf0:	82 81       	ldd	r24, Z+2	; 0x02
     cf2:	90 e0       	ldi	r25, 0x00	; 0
     cf4:	23 81       	ldd	r18, Z+3	; 0x03
     cf6:	82 1b       	sub	r24, r18
     cf8:	91 09       	sbc	r25, r1
     cfa:	44 96       	adiw	r24, 0x14	; 20
     cfc:	89 97       	sbiw	r24, 0x29	; 41
     cfe:	08 f0       	brcs	.+2      	; 0xd02 <go_button_changed+0x16>
     d00:	31 e0       	ldi	r19, 0x01	; 1
	int delta = t->current_go_button- t->prev_go_button;
	return delta > 20 || delta < -20;
}
     d02:	83 2f       	mov	r24, r19
     d04:	08 95       	ret

00000d06 <temp_button_changed>:
char temp_button_changed(struct ANALOG_INPUT * t){
     d06:	fc 01       	movw	r30, r24
     d08:	30 e0       	ldi	r19, 0x00	; 0
     d0a:	84 81       	ldd	r24, Z+4	; 0x04
     d0c:	90 e0       	ldi	r25, 0x00	; 0
     d0e:	25 81       	ldd	r18, Z+5	; 0x05
     d10:	82 1b       	sub	r24, r18
     d12:	91 09       	sbc	r25, r1
     d14:	44 96       	adiw	r24, 0x14	; 20
     d16:	89 97       	sbiw	r24, 0x29	; 41
     d18:	08 f0       	brcs	.+2      	; 0xd1c <temp_button_changed+0x16>
     d1a:	31 e0       	ldi	r19, 0x01	; 1
	int delta = t->current_temp_button- t->prev_temp_button;
	return delta > 20 || delta < -20;
}
     d1c:	83 2f       	mov	r24, r19
     d1e:	08 95       	ret

00000d20 <seconds_changed>:
// DIAL CHANGED METHODS
char seconds_changed(struct ANALOG_INPUT * t){
     d20:	fc 01       	movw	r30, r24
     d22:	40 e0       	ldi	r20, 0x00	; 0
     d24:	86 81       	ldd	r24, Z+6	; 0x06
     d26:	97 81       	ldd	r25, Z+7	; 0x07
     d28:	20 85       	ldd	r18, Z+8	; 0x08
     d2a:	31 85       	ldd	r19, Z+9	; 0x09
     d2c:	82 1b       	sub	r24, r18
     d2e:	93 0b       	sbc	r25, r19
     d30:	02 96       	adiw	r24, 0x02	; 2
     d32:	05 97       	sbiw	r24, 0x05	; 5
     d34:	08 f0       	brcs	.+2      	; 0xd38 <seconds_changed+0x18>
     d36:	41 e0       	ldi	r20, 0x01	; 1
	int delta = t->current_seconds - t->prev_seconds;
	return delta > 2 || delta < -2;
}
     d38:	84 2f       	mov	r24, r20
     d3a:	08 95       	ret

00000d3c <minutes_changed>:

char minutes_changed(struct ANALOG_INPUT * t){
     d3c:	fc 01       	movw	r30, r24
     d3e:	40 e0       	ldi	r20, 0x00	; 0
     d40:	86 81       	ldd	r24, Z+6	; 0x06
     d42:	97 81       	ldd	r25, Z+7	; 0x07
     d44:	20 85       	ldd	r18, Z+8	; 0x08
     d46:	31 85       	ldd	r19, Z+9	; 0x09
     d48:	82 1b       	sub	r24, r18
     d4a:	93 0b       	sbc	r25, r19
     d4c:	02 96       	adiw	r24, 0x02	; 2
     d4e:	05 97       	sbiw	r24, 0x05	; 5
     d50:	08 f0       	brcs	.+2      	; 0xd54 <minutes_changed+0x18>
     d52:	41 e0       	ldi	r20, 0x01	; 1
	int delta = t->current_seconds - t->prev_seconds;
	return delta > 2 || delta < -2;
}
     d54:	84 2f       	mov	r24, r20
     d56:	08 95       	ret

00000d58 <temperature_changed>:

char temperature_changed(struct ANALOG_INPUT * t){
     d58:	fc 01       	movw	r30, r24
     d5a:	40 e0       	ldi	r20, 0x00	; 0
     d5c:	86 85       	ldd	r24, Z+14	; 0x0e
     d5e:	97 85       	ldd	r25, Z+15	; 0x0f
     d60:	20 89       	ldd	r18, Z+16	; 0x10
     d62:	31 89       	ldd	r19, Z+17	; 0x11
     d64:	82 1b       	sub	r24, r18
     d66:	93 0b       	sbc	r25, r19
     d68:	02 96       	adiw	r24, 0x02	; 2
     d6a:	05 97       	sbiw	r24, 0x05	; 5
     d6c:	08 f0       	brcs	.+2      	; 0xd70 <temperature_changed+0x18>
     d6e:	41 e0       	ldi	r20, 0x01	; 1
	int delta = t->current_temp - t->prev_temp;
	return delta > 2 || delta < -2;
}
     d70:	84 2f       	mov	r24, r20
     d72:	08 95       	ret

00000d74 <linear_scale>:

/*
Performs linear mapping
from original range to new range
*/
long linear_scale(long x, long in_min, long in_max, long out_min, long out_max){
     d74:	2f 92       	push	r2
     d76:	3f 92       	push	r3
     d78:	4f 92       	push	r4
     d7a:	5f 92       	push	r5
     d7c:	6f 92       	push	r6
     d7e:	7f 92       	push	r7
     d80:	8f 92       	push	r8
     d82:	9f 92       	push	r9
     d84:	af 92       	push	r10
     d86:	bf 92       	push	r11
     d88:	cf 92       	push	r12
     d8a:	df 92       	push	r13
     d8c:	ef 92       	push	r14
     d8e:	ff 92       	push	r15
     d90:	0f 93       	push	r16
     d92:	1f 93       	push	r17
     d94:	df 93       	push	r29
     d96:	cf 93       	push	r28
     d98:	cd b7       	in	r28, 0x3d	; 61
     d9a:	de b7       	in	r29, 0x3e	; 62
     d9c:	3b 01       	movw	r6, r22
     d9e:	4c 01       	movw	r8, r24
     da0:	19 01       	movw	r2, r18
     da2:	2a 01       	movw	r4, r20
     da4:	6d 89       	ldd	r22, Y+21	; 0x15
     da6:	7e 89       	ldd	r23, Y+22	; 0x16
     da8:	8f 89       	ldd	r24, Y+23	; 0x17
     daa:	98 8d       	ldd	r25, Y+24	; 0x18
     dac:	6a 19       	sub	r22, r10
     dae:	7b 09       	sbc	r23, r11
     db0:	8c 09       	sbc	r24, r12
     db2:	9d 09       	sbc	r25, r13
     db4:	62 1a       	sub	r6, r18
     db6:	73 0a       	sbc	r7, r19
     db8:	84 0a       	sbc	r8, r20
     dba:	95 0a       	sbc	r9, r21
     dbc:	a4 01       	movw	r20, r8
     dbe:	93 01       	movw	r18, r6
     dc0:	0e 94 6a 0e 	call	0x1cd4	; 0x1cd4 <__mulsi3>
     dc4:	e2 18       	sub	r14, r2
     dc6:	f3 08       	sbc	r15, r3
     dc8:	04 09       	sbc	r16, r4
     dca:	15 09       	sbc	r17, r5
     dcc:	a8 01       	movw	r20, r16
     dce:	97 01       	movw	r18, r14
     dd0:	0e 94 b0 0e 	call	0x1d60	; 0x1d60 <__divmodsi4>
     dd4:	2a 0d       	add	r18, r10
     dd6:	3b 1d       	adc	r19, r11
     dd8:	4c 1d       	adc	r20, r12
     dda:	5d 1d       	adc	r21, r13
  return (x - in_min) * (out_max - out_min) / (in_max - in_min) + out_min;
}
     ddc:	b9 01       	movw	r22, r18
     dde:	ca 01       	movw	r24, r20
     de0:	cf 91       	pop	r28
     de2:	df 91       	pop	r29
     de4:	1f 91       	pop	r17
     de6:	0f 91       	pop	r16
     de8:	ff 90       	pop	r15
     dea:	ef 90       	pop	r14
     dec:	df 90       	pop	r13
     dee:	cf 90       	pop	r12
     df0:	bf 90       	pop	r11
     df2:	af 90       	pop	r10
     df4:	9f 90       	pop	r9
     df6:	8f 90       	pop	r8
     df8:	7f 90       	pop	r7
     dfa:	6f 90       	pop	r6
     dfc:	5f 90       	pop	r5
     dfe:	4f 90       	pop	r4
     e00:	3f 90       	pop	r3
     e02:	2f 90       	pop	r2
     e04:	08 95       	ret

00000e06 <pot_to_temp>:

int pot_to_temp(int value){
     e06:	af 92       	push	r10
     e08:	bf 92       	push	r11
     e0a:	cf 92       	push	r12
     e0c:	df 92       	push	r13
     e0e:	ef 92       	push	r14
     e10:	ff 92       	push	r15
     e12:	0f 93       	push	r16
     e14:	1f 93       	push	r17
	return linear_scale(value, 0, 1023, 0, 100);
     e16:	00 d0       	rcall	.+0      	; 0xe18 <pot_to_temp+0x12>
     e18:	00 d0       	rcall	.+0      	; 0xe1a <pot_to_temp+0x14>
     e1a:	aa 27       	eor	r26, r26
     e1c:	97 fd       	sbrc	r25, 7
     e1e:	a0 95       	com	r26
     e20:	ba 2f       	mov	r27, r26
     e22:	24 e6       	ldi	r18, 0x64	; 100
     e24:	30 e0       	ldi	r19, 0x00	; 0
     e26:	40 e0       	ldi	r20, 0x00	; 0
     e28:	50 e0       	ldi	r21, 0x00	; 0
     e2a:	ed b7       	in	r30, 0x3d	; 61
     e2c:	fe b7       	in	r31, 0x3e	; 62
     e2e:	21 83       	std	Z+1, r18	; 0x01
     e30:	32 83       	std	Z+2, r19	; 0x02
     e32:	43 83       	std	Z+3, r20	; 0x03
     e34:	54 83       	std	Z+4, r21	; 0x04
     e36:	bc 01       	movw	r22, r24
     e38:	cd 01       	movw	r24, r26
     e3a:	20 e0       	ldi	r18, 0x00	; 0
     e3c:	30 e0       	ldi	r19, 0x00	; 0
     e3e:	40 e0       	ldi	r20, 0x00	; 0
     e40:	50 e0       	ldi	r21, 0x00	; 0
     e42:	ff ef       	ldi	r31, 0xFF	; 255
     e44:	ef 2e       	mov	r14, r31
     e46:	f3 e0       	ldi	r31, 0x03	; 3
     e48:	ff 2e       	mov	r15, r31
     e4a:	01 2d       	mov	r16, r1
     e4c:	11 2d       	mov	r17, r1
     e4e:	aa 24       	eor	r10, r10
     e50:	bb 24       	eor	r11, r11
     e52:	65 01       	movw	r12, r10
     e54:	0e 94 ba 06 	call	0xd74	; 0xd74 <linear_scale>
     e58:	0f 90       	pop	r0
     e5a:	0f 90       	pop	r0
     e5c:	0f 90       	pop	r0
     e5e:	0f 90       	pop	r0
}
     e60:	cb 01       	movw	r24, r22
     e62:	1f 91       	pop	r17
     e64:	0f 91       	pop	r16
     e66:	ff 90       	pop	r15
     e68:	ef 90       	pop	r14
     e6a:	df 90       	pop	r13
     e6c:	cf 90       	pop	r12
     e6e:	bf 90       	pop	r11
     e70:	af 90       	pop	r10
     e72:	08 95       	ret

00000e74 <pot_to_minutes>:

int pot_to_minutes(int value){
     e74:	af 92       	push	r10
     e76:	bf 92       	push	r11
     e78:	cf 92       	push	r12
     e7a:	df 92       	push	r13
     e7c:	ef 92       	push	r14
     e7e:	ff 92       	push	r15
     e80:	0f 93       	push	r16
     e82:	1f 93       	push	r17
	return linear_scale(value, 0, 1023, 0, 99);
     e84:	00 d0       	rcall	.+0      	; 0xe86 <pot_to_minutes+0x12>
     e86:	00 d0       	rcall	.+0      	; 0xe88 <pot_to_minutes+0x14>
     e88:	aa 27       	eor	r26, r26
     e8a:	97 fd       	sbrc	r25, 7
     e8c:	a0 95       	com	r26
     e8e:	ba 2f       	mov	r27, r26
     e90:	23 e6       	ldi	r18, 0x63	; 99
     e92:	30 e0       	ldi	r19, 0x00	; 0
     e94:	40 e0       	ldi	r20, 0x00	; 0
     e96:	50 e0       	ldi	r21, 0x00	; 0
     e98:	ed b7       	in	r30, 0x3d	; 61
     e9a:	fe b7       	in	r31, 0x3e	; 62
     e9c:	21 83       	std	Z+1, r18	; 0x01
     e9e:	32 83       	std	Z+2, r19	; 0x02
     ea0:	43 83       	std	Z+3, r20	; 0x03
     ea2:	54 83       	std	Z+4, r21	; 0x04
     ea4:	bc 01       	movw	r22, r24
     ea6:	cd 01       	movw	r24, r26
     ea8:	20 e0       	ldi	r18, 0x00	; 0
     eaa:	30 e0       	ldi	r19, 0x00	; 0
     eac:	40 e0       	ldi	r20, 0x00	; 0
     eae:	50 e0       	ldi	r21, 0x00	; 0
     eb0:	af ef       	ldi	r26, 0xFF	; 255
     eb2:	ea 2e       	mov	r14, r26
     eb4:	a3 e0       	ldi	r26, 0x03	; 3
     eb6:	fa 2e       	mov	r15, r26
     eb8:	01 2d       	mov	r16, r1
     eba:	11 2d       	mov	r17, r1
     ebc:	aa 24       	eor	r10, r10
     ebe:	bb 24       	eor	r11, r11
     ec0:	65 01       	movw	r12, r10
     ec2:	0e 94 ba 06 	call	0xd74	; 0xd74 <linear_scale>
     ec6:	0f 90       	pop	r0
     ec8:	0f 90       	pop	r0
     eca:	0f 90       	pop	r0
     ecc:	0f 90       	pop	r0
}
     ece:	cb 01       	movw	r24, r22
     ed0:	1f 91       	pop	r17
     ed2:	0f 91       	pop	r16
     ed4:	ff 90       	pop	r15
     ed6:	ef 90       	pop	r14
     ed8:	df 90       	pop	r13
     eda:	cf 90       	pop	r12
     edc:	bf 90       	pop	r11
     ede:	af 90       	pop	r10
     ee0:	08 95       	ret

00000ee2 <pot_to_seconds>:
int pot_to_seconds(int value){
     ee2:	af 92       	push	r10
     ee4:	bf 92       	push	r11
     ee6:	cf 92       	push	r12
     ee8:	df 92       	push	r13
     eea:	ef 92       	push	r14
     eec:	ff 92       	push	r15
     eee:	0f 93       	push	r16
     ef0:	1f 93       	push	r17
	return linear_scale(value, 0, 1023, 0, 59);
     ef2:	00 d0       	rcall	.+0      	; 0xef4 <pot_to_seconds+0x12>
     ef4:	00 d0       	rcall	.+0      	; 0xef6 <pot_to_seconds+0x14>
     ef6:	aa 27       	eor	r26, r26
     ef8:	97 fd       	sbrc	r25, 7
     efa:	a0 95       	com	r26
     efc:	ba 2f       	mov	r27, r26
     efe:	2b e3       	ldi	r18, 0x3B	; 59
     f00:	30 e0       	ldi	r19, 0x00	; 0
     f02:	40 e0       	ldi	r20, 0x00	; 0
     f04:	50 e0       	ldi	r21, 0x00	; 0
     f06:	ed b7       	in	r30, 0x3d	; 61
     f08:	fe b7       	in	r31, 0x3e	; 62
     f0a:	21 83       	std	Z+1, r18	; 0x01
     f0c:	32 83       	std	Z+2, r19	; 0x02
     f0e:	43 83       	std	Z+3, r20	; 0x03
     f10:	54 83       	std	Z+4, r21	; 0x04
     f12:	bc 01       	movw	r22, r24
     f14:	cd 01       	movw	r24, r26
     f16:	20 e0       	ldi	r18, 0x00	; 0
     f18:	30 e0       	ldi	r19, 0x00	; 0
     f1a:	40 e0       	ldi	r20, 0x00	; 0
     f1c:	50 e0       	ldi	r21, 0x00	; 0
     f1e:	bf ef       	ldi	r27, 0xFF	; 255
     f20:	eb 2e       	mov	r14, r27
     f22:	b3 e0       	ldi	r27, 0x03	; 3
     f24:	fb 2e       	mov	r15, r27
     f26:	01 2d       	mov	r16, r1
     f28:	11 2d       	mov	r17, r1
     f2a:	aa 24       	eor	r10, r10
     f2c:	bb 24       	eor	r11, r11
     f2e:	65 01       	movw	r12, r10
     f30:	0e 94 ba 06 	call	0xd74	; 0xd74 <linear_scale>
     f34:	0f 90       	pop	r0
     f36:	0f 90       	pop	r0
     f38:	0f 90       	pop	r0
     f3a:	0f 90       	pop	r0
}
     f3c:	cb 01       	movw	r24, r22
     f3e:	1f 91       	pop	r17
     f40:	0f 91       	pop	r16
     f42:	ff 90       	pop	r15
     f44:	ef 90       	pop	r14
     f46:	df 90       	pop	r13
     f48:	cf 90       	pop	r12
     f4a:	bf 90       	pop	r11
     f4c:	af 90       	pop	r10
     f4e:	08 95       	ret

00000f50 <init_lcd>:


//**********************************************************
// LCD setup
void init_lcd(void) {
	LCDinit();				//initialize the display
     f50:	0e 94 99 05 	call	0xb32	; 0xb32 <LCDinit>
	LCDcursorOFF();
     f54:	0e 94 01 06 	call	0xc02	; 0xc02 <LCDcursorOFF>
	LCDclr();				//clear the display
     f58:	0e 94 32 05 	call	0xa64	; 0xa64 <LCDclr>
	LCDGotoXY(0,0);
     f5c:	80 e0       	ldi	r24, 0x00	; 0
     f5e:	60 e0       	ldi	r22, 0x00	; 0
     f60:	0e 94 4f 05 	call	0xa9e	; 0xa9e <LCDGotoXY>
}
     f64:	08 95       	ret

00000f66 <adc_init>:

//********************************************************** 
// ADC setup
void adc_init(void){
	ADCSRA |= ((1<<ADPS2)|(1<<ADPS1)|(1<<ADPS0));    //16Mhz/128 = 125Khz the ADC reference clock
     f66:	ea e7       	ldi	r30, 0x7A	; 122
     f68:	f0 e0       	ldi	r31, 0x00	; 0
     f6a:	80 81       	ld	r24, Z
     f6c:	87 60       	ori	r24, 0x07	; 7
     f6e:	80 83       	st	Z, r24
	ADMUX |= (1<<REFS0);                //Voltage reference from Avcc (5v)
     f70:	ac e7       	ldi	r26, 0x7C	; 124
     f72:	b0 e0       	ldi	r27, 0x00	; 0
     f74:	8c 91       	ld	r24, X
     f76:	80 64       	ori	r24, 0x40	; 64
     f78:	8c 93       	st	X, r24
	ADCSRA |= (1<<ADEN);                //Turn on ADC
     f7a:	80 81       	ld	r24, Z
     f7c:	80 68       	ori	r24, 0x80	; 128
     f7e:	80 83       	st	Z, r24
	ADCSRA |= (1<<ADSC);                //Do an initial conversion because this one is the slowest and to ensure that everything is up and running
     f80:	80 81       	ld	r24, Z
     f82:	80 64       	ori	r24, 0x40	; 64
     f84:	80 83       	st	Z, r24
}
     f86:	08 95       	ret

00000f88 <read_adc>:
 
uint16_t read_adc(uint8_t channel){
	ADMUX &= 0xF0;                  //Clear the older channel that was read
     f88:	90 91 7c 00 	lds	r25, 0x007C
     f8c:	90 7f       	andi	r25, 0xF0	; 240
     f8e:	90 93 7c 00 	sts	0x007C, r25
	ADMUX |= channel;               //Defines the new ADC channel to be read
     f92:	90 91 7c 00 	lds	r25, 0x007C
     f96:	98 2b       	or	r25, r24
     f98:	90 93 7c 00 	sts	0x007C, r25
	ADCSRA |= (1<<ADSC);            //Starts a new conversion
     f9c:	80 91 7a 00 	lds	r24, 0x007A
     fa0:	80 64       	ori	r24, 0x40	; 64
     fa2:	80 93 7a 00 	sts	0x007A, r24
	while(ADCSRA & (1<<ADSC));     	//Wait until the conversion is done
     fa6:	80 91 7a 00 	lds	r24, 0x007A
     faa:	86 fd       	sbrc	r24, 6
     fac:	fc cf       	rjmp	.-8      	; 0xfa6 <read_adc+0x1e>
	return ADCW;                    //Returns the ADC value of the chosen channel
     fae:	20 91 78 00 	lds	r18, 0x0078
     fb2:	30 91 79 00 	lds	r19, 0x0079
}
     fb6:	c9 01       	movw	r24, r18
     fb8:	08 95       	ret

00000fba <analog_input_update>:
	t->current_seconds = t->prev_seconds = read_adc(POT_SEC);
	t->current_minutes = t->prev_minutes = read_adc(POT_MIN);
	t->current_temp    = t->prev_temp    = read_adc(POT_TEMP);
}

void analog_input_update(struct ANALOG_INPUT * t){
     fba:	0f 93       	push	r16
     fbc:	1f 93       	push	r17
     fbe:	8c 01       	movw	r16, r24
	t->prev_min_button = t->current_min_button;
     fc0:	fc 01       	movw	r30, r24
     fc2:	80 81       	ld	r24, Z
     fc4:	81 83       	std	Z+1, r24	; 0x01
	t->current_min_button = read_adc(BUTT_MIN);
     fc6:	84 e0       	ldi	r24, 0x04	; 4
     fc8:	0e 94 c4 07 	call	0xf88	; 0xf88 <read_adc>
     fcc:	f8 01       	movw	r30, r16
     fce:	80 83       	st	Z, r24

	t->prev_go_button  = t->current_go_button;
     fd0:	82 81       	ldd	r24, Z+2	; 0x02
     fd2:	83 83       	std	Z+3, r24	; 0x03
	t->current_go_button  = read_adc(BUTT_GO);
     fd4:	85 e0       	ldi	r24, 0x05	; 5
     fd6:	0e 94 c4 07 	call	0xf88	; 0xf88 <read_adc>
     fda:	f8 01       	movw	r30, r16
     fdc:	82 83       	std	Z+2, r24	; 0x02

	t->prev_temp_button = t->current_temp_button;
     fde:	84 81       	ldd	r24, Z+4	; 0x04
     fe0:	85 83       	std	Z+5, r24	; 0x05
	t->current_temp_button = read_adc(BUTT_TEMP);
     fe2:	86 e0       	ldi	r24, 0x06	; 6
     fe4:	0e 94 c4 07 	call	0xf88	; 0xf88 <read_adc>
     fe8:	f8 01       	movw	r30, r16
     fea:	84 83       	std	Z+4, r24	; 0x04

	t->prev_seconds = t->current_seconds;
     fec:	86 81       	ldd	r24, Z+6	; 0x06
     fee:	97 81       	ldd	r25, Z+7	; 0x07
     ff0:	91 87       	std	Z+9, r25	; 0x09
     ff2:	80 87       	std	Z+8, r24	; 0x08
	t->current_seconds = read_adc(POT_SEC);
     ff4:	82 e0       	ldi	r24, 0x02	; 2
     ff6:	0e 94 c4 07 	call	0xf88	; 0xf88 <read_adc>
     ffa:	f8 01       	movw	r30, r16
     ffc:	97 83       	std	Z+7, r25	; 0x07
     ffe:	86 83       	std	Z+6, r24	; 0x06

	t->prev_minutes = t->current_minutes;
    1000:	82 85       	ldd	r24, Z+10	; 0x0a
    1002:	93 85       	ldd	r25, Z+11	; 0x0b
    1004:	95 87       	std	Z+13, r25	; 0x0d
    1006:	84 87       	std	Z+12, r24	; 0x0c
	t->current_minutes = read_adc(POT_MIN);
    1008:	81 e0       	ldi	r24, 0x01	; 1
    100a:	0e 94 c4 07 	call	0xf88	; 0xf88 <read_adc>
    100e:	f8 01       	movw	r30, r16
    1010:	93 87       	std	Z+11, r25	; 0x0b
    1012:	82 87       	std	Z+10, r24	; 0x0a

	t->prev_temp = t->current_temp;
    1014:	86 85       	ldd	r24, Z+14	; 0x0e
    1016:	97 85       	ldd	r25, Z+15	; 0x0f
    1018:	91 8b       	std	Z+17, r25	; 0x11
    101a:	80 8b       	std	Z+16, r24	; 0x10
	t->current_temp = read_adc(POT_TEMP);
    101c:	83 e0       	ldi	r24, 0x03	; 3
    101e:	0e 94 c4 07 	call	0xf88	; 0xf88 <read_adc>
    1022:	f8 01       	movw	r30, r16
    1024:	97 87       	std	Z+15, r25	; 0x0f
    1026:	86 87       	std	Z+14, r24	; 0x0e
}
    1028:	1f 91       	pop	r17
    102a:	0f 91       	pop	r16
    102c:	08 95       	ret

0000102e <analog_input_init>:
	return linear_scale(value, 0, 1023, 0, 59);
}


// UTILITY FUNCTIONS
void analog_input_init(struct ANALOG_INPUT * t){
    102e:	0f 93       	push	r16
    1030:	1f 93       	push	r17
    1032:	8c 01       	movw	r16, r24
	t->current_min_button = t->prev_min_button = read_adc(BUTT_MIN);
    1034:	84 e0       	ldi	r24, 0x04	; 4
    1036:	0e 94 c4 07 	call	0xf88	; 0xf88 <read_adc>
    103a:	f8 01       	movw	r30, r16
    103c:	81 83       	std	Z+1, r24	; 0x01
    103e:	80 83       	st	Z, r24
	t->current_go_button  = t->prev_go_button  = read_adc(BUTT_GO);
    1040:	85 e0       	ldi	r24, 0x05	; 5
    1042:	0e 94 c4 07 	call	0xf88	; 0xf88 <read_adc>
    1046:	f8 01       	movw	r30, r16
    1048:	83 83       	std	Z+3, r24	; 0x03
    104a:	82 83       	std	Z+2, r24	; 0x02
	t->current_temp_button= t->current_temp_button = read_adc(BUTT_TEMP);
    104c:	86 e0       	ldi	r24, 0x06	; 6
    104e:	0e 94 c4 07 	call	0xf88	; 0xf88 <read_adc>
    1052:	f8 01       	movw	r30, r16
    1054:	84 83       	std	Z+4, r24	; 0x04

	t->current_seconds = t->prev_seconds = read_adc(POT_SEC);
    1056:	82 e0       	ldi	r24, 0x02	; 2
    1058:	0e 94 c4 07 	call	0xf88	; 0xf88 <read_adc>
    105c:	f8 01       	movw	r30, r16
    105e:	80 87       	std	Z+8, r24	; 0x08
    1060:	91 87       	std	Z+9, r25	; 0x09
    1062:	86 83       	std	Z+6, r24	; 0x06
    1064:	97 83       	std	Z+7, r25	; 0x07
	t->current_minutes = t->prev_minutes = read_adc(POT_MIN);
    1066:	81 e0       	ldi	r24, 0x01	; 1
    1068:	0e 94 c4 07 	call	0xf88	; 0xf88 <read_adc>
    106c:	f8 01       	movw	r30, r16
    106e:	84 87       	std	Z+12, r24	; 0x0c
    1070:	95 87       	std	Z+13, r25	; 0x0d
    1072:	82 87       	std	Z+10, r24	; 0x0a
    1074:	93 87       	std	Z+11, r25	; 0x0b
	t->current_temp    = t->prev_temp    = read_adc(POT_TEMP);
    1076:	83 e0       	ldi	r24, 0x03	; 3
    1078:	0e 94 c4 07 	call	0xf88	; 0xf88 <read_adc>
    107c:	f8 01       	movw	r30, r16
    107e:	80 8b       	std	Z+16, r24	; 0x10
    1080:	91 8b       	std	Z+17, r25	; 0x11
    1082:	86 87       	std	Z+14, r24	; 0x0e
    1084:	97 87       	std	Z+15, r25	; 0x0f
}
    1086:	1f 91       	pop	r17
    1088:	0f 91       	pop	r16
    108a:	08 95       	ret

0000108c <main>:

// --- define task 5 - update the led screen ------


// --- Main Program ----------------------------------
int main(void) {
    108c:	cf 92       	push	r12
    108e:	df 92       	push	r13
    1090:	ef 92       	push	r14
    1092:	ff 92       	push	r15
    1094:	0f 93       	push	r16
    1096:	1f 93       	push	r17
  //init the UART -- trt_uart_init() is in trtUart.c
  trt_uart_init();
    1098:	0e 94 75 03 	call	0x6ea	; 0x6ea <trt_uart_init>
  stdout = stdin = stderr = &uart0;
    109c:	6a e2       	ldi	r22, 0x2A	; 42
    109e:	72 e0       	ldi	r23, 0x02	; 2
    10a0:	70 93 da 04 	sts	0x04DA, r23
    10a4:	60 93 d9 04 	sts	0x04D9, r22
    10a8:	70 93 d6 04 	sts	0x04D6, r23
    10ac:	60 93 d5 04 	sts	0x04D5, r22
    10b0:	70 93 d8 04 	sts	0x04D8, r23
    10b4:	60 93 d7 04 	sts	0x04D7, r22
  fprintf(stdout,"\n\r Welcome to KitchenBot UI \n\r Please input your instructions below\n\r The options are: time, temp, & egg\n\r\n\r");
    10b8:	80 e0       	ldi	r24, 0x00	; 0
    10ba:	91 e0       	ldi	r25, 0x01	; 1
    10bc:	0e 94 6f 10 	call	0x20de	; 0x20de <fputs>
    // start TRT
  trtInitKernel(80); // 80 bytes for the idle task stack
    10c0:	80 e5       	ldi	r24, 0x50	; 80
    10c2:	90 e0       	ldi	r25, 0x00	; 0
    10c4:	0e 94 db 01 	call	0x3b6	; 0x3b6 <trtInitKernel>

}

void trtCreateSemaphore(uint8_t semnbr, uint8_t initVal) {

  cli(); // turn off interrupts
    10c8:	f8 94       	cli

  kernel.semaphores[semnbr-1] = initVal;
    10ca:	10 92 bc 04 	sts	0x04BC, r1
  
  sei(); // set enabled interrupts;
    10ce:	78 94       	sei

}

void trtCreateSemaphore(uint8_t semnbr, uint8_t initVal) {

  cli(); // turn off interrupts
    10d0:	f8 94       	cli

  kernel.semaphores[semnbr-1] = initVal;
    10d2:	10 92 bd 04 	sts	0x04BD, r1
  
  sei(); // set enabled interrupts;
    10d6:	78 94       	sei

}

void trtCreateSemaphore(uint8_t semnbr, uint8_t initVal) {

  cli(); // turn off interrupts
    10d8:	f8 94       	cli

  kernel.semaphores[semnbr-1] = initVal;
    10da:	81 e0       	ldi	r24, 0x01	; 1
    10dc:	80 93 bf 04 	sts	0x04BF, r24
  
  sei(); // set enabled interrupts;
    10e0:	78 94       	sei

  // variable protection
  trtCreateSemaphore(SEM_SHARED, 1) ; // protect shared variable

  // --- create tasks  ----------------
  trtCreateTask(serialComm, 1000, SECONDS2TICKS(0.1), SECONDS2TICKS(0.1), &(args[0]));
    10e2:	85 eb       	ldi	r24, 0xB5	; 181
    10e4:	9a e0       	ldi	r25, 0x0A	; 10
    10e6:	68 ee       	ldi	r22, 0xE8	; 232
    10e8:	73 e0       	ldi	r23, 0x03	; 3
    10ea:	2a e1       	ldi	r18, 0x1A	; 26
    10ec:	36 e0       	ldi	r19, 0x06	; 6
    10ee:	40 e0       	ldi	r20, 0x00	; 0
    10f0:	50 e0       	ldi	r21, 0x00	; 0
    10f2:	ea e1       	ldi	r30, 0x1A	; 26
    10f4:	ee 2e       	mov	r14, r30
    10f6:	e6 e0       	ldi	r30, 0x06	; 6
    10f8:	fe 2e       	mov	r15, r30
    10fa:	01 2d       	mov	r16, r1
    10fc:	11 2d       	mov	r17, r1
    10fe:	b6 e6       	ldi	r27, 0x66	; 102
    1100:	cb 2e       	mov	r12, r27
    1102:	b4 e0       	ldi	r27, 0x04	; 4
    1104:	db 2e       	mov	r13, r27
    1106:	0e 94 19 02 	call	0x432	; 0x432 <trtCreateTask>
  trtCreateTask(lcdComm, 1000, SECONDS2TICKS(0.25), SECONDS2TICKS(0.5), &(args[0]));
    110a:	84 ed       	ldi	r24, 0xD4	; 212
    110c:	99 e0       	ldi	r25, 0x09	; 9
    110e:	68 ee       	ldi	r22, 0xE8	; 232
    1110:	73 e0       	ldi	r23, 0x03	; 3
    1112:	22 e4       	ldi	r18, 0x42	; 66
    1114:	3f e0       	ldi	r19, 0x0F	; 15
    1116:	40 e0       	ldi	r20, 0x00	; 0
    1118:	50 e0       	ldi	r21, 0x00	; 0
    111a:	a4 e8       	ldi	r26, 0x84	; 132
    111c:	ea 2e       	mov	r14, r26
    111e:	ae e1       	ldi	r26, 0x1E	; 30
    1120:	fa 2e       	mov	r15, r26
    1122:	01 2d       	mov	r16, r1
    1124:	11 2d       	mov	r17, r1
    1126:	0e 94 19 02 	call	0x432	; 0x432 <trtCreateTask>
  trtCreateTask(adjustTemp, 2000, SECONDS2TICKS(2), SECONDS2TICKS(4), &(args[0]));
    112a:	86 eb       	ldi	r24, 0xB6	; 182
    112c:	98 e0       	ldi	r25, 0x08	; 8
    112e:	60 ed       	ldi	r22, 0xD0	; 208
    1130:	77 e0       	ldi	r23, 0x07	; 7
    1132:	22 e1       	ldi	r18, 0x12	; 18
    1134:	3a e7       	ldi	r19, 0x7A	; 122
    1136:	40 e0       	ldi	r20, 0x00	; 0
    1138:	50 e0       	ldi	r21, 0x00	; 0
    113a:	f4 e2       	ldi	r31, 0x24	; 36
    113c:	ef 2e       	mov	r14, r31
    113e:	f4 ef       	ldi	r31, 0xF4	; 244
    1140:	ff 2e       	mov	r15, r31
    1142:	01 2d       	mov	r16, r1
    1144:	11 2d       	mov	r17, r1
    1146:	0e 94 19 02 	call	0x432	; 0x432 <trtCreateTask>
  trtCreateTask(readAnalogInputs, 1000, SECONDS2TICKS(0.25), SECONDS2TICKS(0.5), &(args[0]));
    114a:	83 ea       	ldi	r24, 0xA3	; 163
    114c:	99 e0       	ldi	r25, 0x09	; 9
    114e:	68 ee       	ldi	r22, 0xE8	; 232
    1150:	73 e0       	ldi	r23, 0x03	; 3
    1152:	22 e4       	ldi	r18, 0x42	; 66
    1154:	3f e0       	ldi	r19, 0x0F	; 15
    1156:	40 e0       	ldi	r20, 0x00	; 0
    1158:	50 e0       	ldi	r21, 0x00	; 0
    115a:	e4 e8       	ldi	r30, 0x84	; 132
    115c:	ee 2e       	mov	r14, r30
    115e:	ee e1       	ldi	r30, 0x1E	; 30
    1160:	fe 2e       	mov	r15, r30
    1162:	01 2d       	mov	r16, r1
    1164:	11 2d       	mov	r17, r1
    1166:	0e 94 19 02 	call	0x432	; 0x432 <trtCreateTask>
    116a:	ff cf       	rjmp	.-2      	; 0x116a <main+0xde>

0000116c <adjustTemp>:
	  trtSleepUntil(rel, dead);	
  	}
}

// --- define task 3  ----------------------------------------
void adjustTemp(void* args) {
    116c:	ef 92       	push	r14
    116e:	ff 92       	push	r15
    1170:	0f 93       	push	r16
    1172:	1f 93       	push	r17
    1174:	cf 93       	push	r28
    1176:	df 93       	push	r29
			PORTD |= LED_EN;    	// Turn on LED
			if (dTemp != 0) {
				if (count_en == 0) {
					fprintf(stdout, "Timer enabled.\n\r");
				}
				count_en = 1;			// Enable timer count down
    1178:	c1 e0       	ldi	r28, 0x01	; 1
    117a:	d0 e0       	ldi	r29, 0x00	; 0
void adjustTemp(void* args) {
	uint32_t rel, dead;
	uint16_t adc_in;
	while(TRUE){
		// Read ADC value
		adc_in = read_adc(0);
    117c:	80 e0       	ldi	r24, 0x00	; 0
    117e:	0e 94 c4 07 	call	0xf88	; 0xf88 <read_adc>
    1182:	7c 01       	movw	r14, r24
		//fprintf(stdout, "ADC: %i\n\r", adc_in);

		// Control mechanism
		trtWait(SEM_SHARED);
    1184:	84 e0       	ldi	r24, 0x04	; 4
    1186:	0e 94 7f 02 	call	0x4fe	; 0x4fe <trtWait>
		cTemp = (adc_in + 3) / 2.1;
    118a:	83 e0       	ldi	r24, 0x03	; 3
    118c:	90 e0       	ldi	r25, 0x00	; 0
    118e:	e8 0e       	add	r14, r24
    1190:	f9 1e       	adc	r15, r25
    1192:	00 e0       	ldi	r16, 0x00	; 0
    1194:	10 e0       	ldi	r17, 0x00	; 0
    1196:	c8 01       	movw	r24, r16
    1198:	b7 01       	movw	r22, r14
    119a:	0e 94 55 0c 	call	0x18aa	; 0x18aa <__floatunsisf>
    119e:	26 e6       	ldi	r18, 0x66	; 102
    11a0:	36 e6       	ldi	r19, 0x66	; 102
    11a2:	46 e0       	ldi	r20, 0x06	; 6
    11a4:	50 e4       	ldi	r21, 0x40	; 64
    11a6:	0e 94 55 0b 	call	0x16aa	; 0x16aa <__divsf3>
    11aa:	0e 94 01 0c 	call	0x1802	; 0x1802 <__fixsfsi>
    11ae:	70 93 d0 04 	sts	0x04D0, r23
    11b2:	60 93 cf 04 	sts	0x04CF, r22
		if (cTemp < 0) cTemp = 0; 
    11b6:	80 91 cf 04 	lds	r24, 0x04CF
    11ba:	90 91 d0 04 	lds	r25, 0x04D0
    11be:	97 ff       	sbrs	r25, 7
    11c0:	04 c0       	rjmp	.+8      	; 0x11ca <adjustTemp+0x5e>
    11c2:	10 92 d0 04 	sts	0x04D0, r1
    11c6:	10 92 cf 04 	sts	0x04CF, r1
		if (cTemp < (dTemp/* * .95*/)) {	// Factor of .95 to account for carryover effect
    11ca:	20 91 cf 04 	lds	r18, 0x04CF
    11ce:	30 91 d0 04 	lds	r19, 0x04D0
    11d2:	80 91 6e 04 	lds	r24, 0x046E
    11d6:	90 91 6f 04 	lds	r25, 0x046F
    11da:	28 17       	cp	r18, r24
    11dc:	39 07       	cpc	r19, r25
    11de:	1c f4       	brge	.+6      	; 0x11e6 <adjustTemp+0x7a>
			PORTD &= ~RELAY_EN;		// Turn on heating element
    11e0:	5b 98       	cbi	0x0b, 3	; 11
			PORTD &= ~LED_EN;		// Turn off LED
    11e2:	5a 98       	cbi	0x0b, 2	; 11
    11e4:	1a c0       	rjmp	.+52     	; 0x121a <adjustTemp+0xae>
		}
		else {
			PORTD |= RELAY_EN;		// Turn off heating element
    11e6:	5b 9a       	sbi	0x0b, 3	; 11
			PORTD |= LED_EN;    	// Turn on LED
    11e8:	5a 9a       	sbi	0x0b, 2	; 11
			if (dTemp != 0) {
    11ea:	80 91 6e 04 	lds	r24, 0x046E
    11ee:	90 91 6f 04 	lds	r25, 0x046F
    11f2:	89 2b       	or	r24, r25
    11f4:	91 f0       	breq	.+36     	; 0x121a <adjustTemp+0xae>
				if (count_en == 0) {
    11f6:	80 91 6c 04 	lds	r24, 0x046C
    11fa:	90 91 6d 04 	lds	r25, 0x046D
    11fe:	89 2b       	or	r24, r25
    1200:	41 f4       	brne	.+16     	; 0x1212 <adjustTemp+0xa6>
					fprintf(stdout, "Timer enabled.\n\r");
    1202:	60 91 d7 04 	lds	r22, 0x04D7
    1206:	70 91 d8 04 	lds	r23, 0x04D8
    120a:	8d e6       	ldi	r24, 0x6D	; 109
    120c:	91 e0       	ldi	r25, 0x01	; 1
    120e:	0e 94 6f 10 	call	0x20de	; 0x20de <fputs>
				}
				count_en = 1;			// Enable timer count down
    1212:	d0 93 6d 04 	sts	0x046D, r29
    1216:	c0 93 6c 04 	sts	0x046C, r28
			}
		}
		trtSignal(SEM_SHARED);
    121a:	84 e0       	ldi	r24, 0x04	; 4
    121c:	0e 94 9f 02 	call	0x53e	; 0x53e <trtSignal>
  sei(); // reenable interrupts
}

uint32_t trtCurrentTime(void) {

  return (((uint32_t)kernel.cycles << 16) + (uint32_t)TCNT1);
    1220:	20 91 c6 04 	lds	r18, 0x04C6
    1224:	30 91 c7 04 	lds	r19, 0x04C7
    1228:	40 91 c8 04 	lds	r20, 0x04C8
    122c:	50 91 c9 04 	lds	r21, 0x04C9
    1230:	a9 01       	movw	r20, r18
    1232:	33 27       	eor	r19, r19
    1234:	22 27       	eor	r18, r18
    1236:	60 91 84 00 	lds	r22, 0x0084
    123a:	70 91 85 00 	lds	r23, 0x0085

		// sleep
	  	rel = trtCurrentTime() + SECONDS2TICKS(2);
	  	dead = trtCurrentTime() + SECONDS2TICKS(4);
	  	trtSleepUntil(rel, dead);	
    123e:	e0 90 84 00 	lds	r14, 0x0084
    1242:	f0 90 85 00 	lds	r15, 0x0085
    1246:	80 e0       	ldi	r24, 0x00	; 0
    1248:	90 e0       	ldi	r25, 0x00	; 0
    124a:	62 0f       	add	r22, r18
    124c:	73 1f       	adc	r23, r19
    124e:	84 1f       	adc	r24, r20
    1250:	95 1f       	adc	r25, r21
    1252:	6e 5e       	subi	r22, 0xEE	; 238
    1254:	75 48       	sbci	r23, 0x85	; 133
    1256:	8f 4f       	sbci	r24, 0xFF	; 255
    1258:	9f 4f       	sbci	r25, 0xFF	; 255
    125a:	00 e0       	ldi	r16, 0x00	; 0
    125c:	10 e0       	ldi	r17, 0x00	; 0
    125e:	2e 0d       	add	r18, r14
    1260:	3f 1d       	adc	r19, r15
    1262:	40 1f       	adc	r20, r16
    1264:	51 1f       	adc	r21, r17
    1266:	2c 5d       	subi	r18, 0xDC	; 220
    1268:	3b 40       	sbci	r19, 0x0B	; 11
    126a:	4f 4f       	sbci	r20, 0xFF	; 255
    126c:	5f 4f       	sbci	r21, 0xFF	; 255
    126e:	0e 94 0b 03 	call	0x616	; 0x616 <trtSleepUntil>
    1272:	84 cf       	rjmp	.-248    	; 0x117c <adjustTemp+0x10>

00001274 <__vector_16>:

/********************************************************************/
// 							ISRs & Helper Functions
/********************************************************************/
// --- Timer ISR ------------------------
ISR (TIMER0_COMPA_vect) {
    1274:	1f 92       	push	r1
    1276:	0f 92       	push	r0
    1278:	0f b6       	in	r0, 0x3f	; 63
    127a:	0f 92       	push	r0
    127c:	0b b6       	in	r0, 0x3b	; 59
    127e:	0f 92       	push	r0
    1280:	11 24       	eor	r1, r1
    1282:	2f 93       	push	r18
    1284:	3f 93       	push	r19
    1286:	4f 93       	push	r20
    1288:	5f 93       	push	r21
    128a:	6f 93       	push	r22
    128c:	7f 93       	push	r23
    128e:	8f 93       	push	r24
    1290:	9f 93       	push	r25
    1292:	af 93       	push	r26
    1294:	bf 93       	push	r27
    1296:	ef 93       	push	r30
    1298:	ff 93       	push	r31
	trtWait(SEM_SHARED);
    129a:	84 e0       	ldi	r24, 0x04	; 4
    129c:	0e 94 7f 02 	call	0x4fe	; 0x4fe <trtWait>
	if ((time_rem > 0) && count_en) {
    12a0:	80 91 81 04 	lds	r24, 0x0481
    12a4:	90 91 82 04 	lds	r25, 0x0482
    12a8:	18 16       	cp	r1, r24
    12aa:	19 06       	cpc	r1, r25
    12ac:	b4 f5       	brge	.+108    	; 0x131a <__vector_16+0xa6>
    12ae:	80 91 6c 04 	lds	r24, 0x046C
    12b2:	90 91 6d 04 	lds	r25, 0x046D
    12b6:	89 2b       	or	r24, r25
    12b8:	81 f1       	breq	.+96     	; 0x131a <__vector_16+0xa6>
		if (msec < 1000) {
    12ba:	80 91 6a 04 	lds	r24, 0x046A
    12be:	90 91 6b 04 	lds	r25, 0x046B
    12c2:	88 5e       	subi	r24, 0xE8	; 232
    12c4:	93 40       	sbci	r25, 0x03	; 3
    12c6:	54 f4       	brge	.+20     	; 0x12dc <__vector_16+0x68>
			msec++;
    12c8:	80 91 6a 04 	lds	r24, 0x046A
    12cc:	90 91 6b 04 	lds	r25, 0x046B
    12d0:	01 96       	adiw	r24, 0x01	; 1
    12d2:	90 93 6b 04 	sts	0x046B, r25
    12d6:	80 93 6a 04 	sts	0x046A, r24
    12da:	1f c0       	rjmp	.+62     	; 0x131a <__vector_16+0xa6>
		}
		else {
			msec = 0;
    12dc:	10 92 6b 04 	sts	0x046B, r1
    12e0:	10 92 6a 04 	sts	0x046A, r1
			time_rem--;
    12e4:	80 91 81 04 	lds	r24, 0x0481
    12e8:	90 91 82 04 	lds	r25, 0x0482
    12ec:	01 97       	sbiw	r24, 0x01	; 1
    12ee:	90 93 82 04 	sts	0x0482, r25
    12f2:	80 93 81 04 	sts	0x0481, r24
			if (time_rem == 0) {
    12f6:	80 91 81 04 	lds	r24, 0x0481
    12fa:	90 91 82 04 	lds	r25, 0x0482
    12fe:	89 2b       	or	r24, r25
    1300:	61 f4       	brne	.+24     	; 0x131a <__vector_16+0xa6>
				count_en = 0;
    1302:	10 92 6d 04 	sts	0x046D, r1
    1306:	10 92 6c 04 	sts	0x046C, r1
				fprintf(stdout, "Timer disabled.\n\r");
    130a:	60 91 d7 04 	lds	r22, 0x04D7
    130e:	70 91 d8 04 	lds	r23, 0x04D8
    1312:	8e e7       	ldi	r24, 0x7E	; 126
    1314:	91 e0       	ldi	r25, 0x01	; 1
    1316:	0e 94 6f 10 	call	0x20de	; 0x20de <fputs>
			}
		}
	}
    trtSignal(SEM_SHARED);
    131a:	84 e0       	ldi	r24, 0x04	; 4
    131c:	0e 94 9f 02 	call	0x53e	; 0x53e <trtSignal>
}
    1320:	ff 91       	pop	r31
    1322:	ef 91       	pop	r30
    1324:	bf 91       	pop	r27
    1326:	af 91       	pop	r26
    1328:	9f 91       	pop	r25
    132a:	8f 91       	pop	r24
    132c:	7f 91       	pop	r23
    132e:	6f 91       	pop	r22
    1330:	5f 91       	pop	r21
    1332:	4f 91       	pop	r20
    1334:	3f 91       	pop	r19
    1336:	2f 91       	pop	r18
    1338:	0f 90       	pop	r0
    133a:	0b be       	out	0x3b, r0	; 59
    133c:	0f 90       	pop	r0
    133e:	0f be       	out	0x3f, r0	; 63
    1340:	0f 90       	pop	r0
    1342:	1f 90       	pop	r1
    1344:	18 95       	reti

00001346 <readAnalogInputs>:
	  	trtSleepUntil(rel, dead);	
	}
}

// --- define task 4 - read analog inputs ----------
void readAnalogInputs(void * args) {
    1346:	cf 93       	push	r28
    1348:	df 93       	push	r29

	uint32_t rel, dead;
	while(TRUE){
		analog_input_update(ant);
		fprintf(stdout, "Current Minutes to Temp : %d\n\r", pot_to_temp(ant->current_minutes));
    134a:	c0 e9       	ldi	r28, 0x90	; 144
    134c:	d1 e0       	ldi	r29, 0x01	; 1
// --- define task 4 - read analog inputs ----------
void readAnalogInputs(void * args) {

	uint32_t rel, dead;
	while(TRUE){
		analog_input_update(ant);
    134e:	80 91 64 04 	lds	r24, 0x0464
    1352:	90 91 65 04 	lds	r25, 0x0465
    1356:	0e 94 dd 07 	call	0xfba	; 0xfba <analog_input_update>
		fprintf(stdout, "Current Minutes to Temp : %d\n\r", pot_to_temp(ant->current_minutes));
    135a:	e0 91 64 04 	lds	r30, 0x0464
    135e:	f0 91 65 04 	lds	r31, 0x0465
    1362:	82 85       	ldd	r24, Z+10	; 0x0a
    1364:	93 85       	ldd	r25, Z+11	; 0x0b
    1366:	0e 94 03 07 	call	0xe06	; 0xe06 <pot_to_temp>
    136a:	00 d0       	rcall	.+0      	; 0x136c <readAnalogInputs+0x26>
    136c:	00 d0       	rcall	.+0      	; 0x136e <readAnalogInputs+0x28>
    136e:	00 d0       	rcall	.+0      	; 0x1370 <readAnalogInputs+0x2a>
    1370:	ed b7       	in	r30, 0x3d	; 61
    1372:	fe b7       	in	r31, 0x3e	; 62
    1374:	31 96       	adiw	r30, 0x01	; 1
    1376:	20 91 d7 04 	lds	r18, 0x04D7
    137a:	30 91 d8 04 	lds	r19, 0x04D8
    137e:	ad b7       	in	r26, 0x3d	; 61
    1380:	be b7       	in	r27, 0x3e	; 62
    1382:	12 96       	adiw	r26, 0x02	; 2
    1384:	3c 93       	st	X, r19
    1386:	2e 93       	st	-X, r18
    1388:	11 97       	sbiw	r26, 0x01	; 1
    138a:	d3 83       	std	Z+3, r29	; 0x03
    138c:	c2 83       	std	Z+2, r28	; 0x02
    138e:	95 83       	std	Z+5, r25	; 0x05
    1390:	84 83       	std	Z+4, r24	; 0x04
    1392:	0e 94 32 10 	call	0x2064	; 0x2064 <fprintf>
    1396:	8d b7       	in	r24, 0x3d	; 61
    1398:	9e b7       	in	r25, 0x3e	; 62
    139a:	06 96       	adiw	r24, 0x06	; 6
    139c:	0f b6       	in	r0, 0x3f	; 63
    139e:	f8 94       	cli
    13a0:	9e bf       	out	0x3e, r25	; 62
    13a2:	0f be       	out	0x3f, r0	; 63
    13a4:	8d bf       	out	0x3d, r24	; 61
    13a6:	d3 cf       	rjmp	.-90     	; 0x134e <readAnalogInputs+0x8>

000013a8 <lcdComm>:
		trtSignal(SEM_SHARED);
	}
}

// --- define task 2  ----------------------------------------
void lcdComm(void* args) {
    13a8:	cf 92       	push	r12
    13aa:	df 92       	push	r13
    13ac:	ef 92       	push	r14
    13ae:	ff 92       	push	r15
    13b0:	0f 93       	push	r16
    13b2:	1f 93       	push	r17
    13b4:	cf 93       	push	r28
    13b6:	df 93       	push	r29
	uint32_t rel, dead;
	// increment time counter and format string 
	while (TRUE) {
	  // display the current temp
	  trtWait(SEM_SHARED) ;
	  sprintf(lcd_buffer, "%iC      ", cTemp);
    13b8:	c0 e7       	ldi	r28, 0x70	; 112
    13ba:	d4 e0       	ldi	r29, 0x04	; 4
    13bc:	bf ea       	ldi	r27, 0xAF	; 175
    13be:	cb 2e       	mov	r12, r27
    13c0:	b1 e0       	ldi	r27, 0x01	; 1
    13c2:	db 2e       	mov	r13, r27
void lcdComm(void* args) {
	uint32_t rel, dead;
	// increment time counter and format string 
	while (TRUE) {
	  // display the current temp
	  trtWait(SEM_SHARED) ;
    13c4:	84 e0       	ldi	r24, 0x04	; 4
    13c6:	0e 94 7f 02 	call	0x4fe	; 0x4fe <trtWait>
	  sprintf(lcd_buffer, "%iC      ", cTemp);
    13ca:	80 91 cf 04 	lds	r24, 0x04CF
    13ce:	90 91 d0 04 	lds	r25, 0x04D0
    13d2:	00 d0       	rcall	.+0      	; 0x13d4 <lcdComm+0x2c>
    13d4:	00 d0       	rcall	.+0      	; 0x13d6 <lcdComm+0x2e>
    13d6:	00 d0       	rcall	.+0      	; 0x13d8 <lcdComm+0x30>
    13d8:	ed b7       	in	r30, 0x3d	; 61
    13da:	fe b7       	in	r31, 0x3e	; 62
    13dc:	31 96       	adiw	r30, 0x01	; 1
    13de:	ad b7       	in	r26, 0x3d	; 61
    13e0:	be b7       	in	r27, 0x3e	; 62
    13e2:	12 96       	adiw	r26, 0x02	; 2
    13e4:	dc 93       	st	X, r29
    13e6:	ce 93       	st	-X, r28
    13e8:	11 97       	sbiw	r26, 0x01	; 1
    13ea:	d3 82       	std	Z+3, r13	; 0x03
    13ec:	c2 82       	std	Z+2, r12	; 0x02
    13ee:	95 83       	std	Z+5, r25	; 0x05
    13f0:	84 83       	std	Z+4, r24	; 0x04
    13f2:	0e 94 ab 10 	call	0x2156	; 0x2156 <sprintf>
	  LCDGotoXY(9, 0);
    13f6:	8d b7       	in	r24, 0x3d	; 61
    13f8:	9e b7       	in	r25, 0x3e	; 62
    13fa:	06 96       	adiw	r24, 0x06	; 6
    13fc:	0f b6       	in	r0, 0x3f	; 63
    13fe:	f8 94       	cli
    1400:	9e bf       	out	0x3e, r25	; 62
    1402:	0f be       	out	0x3f, r0	; 63
    1404:	8d bf       	out	0x3d, r24	; 61
    1406:	89 e0       	ldi	r24, 0x09	; 9
    1408:	60 e0       	ldi	r22, 0x00	; 0
    140a:	0e 94 4f 05 	call	0xa9e	; 0xa9e <LCDGotoXY>
	  LCDstring(lcd_buffer, strlen(lcd_buffer));
    140e:	fe 01       	movw	r30, r28
    1410:	01 90       	ld	r0, Z+
    1412:	00 20       	and	r0, r0
    1414:	e9 f7       	brne	.-6      	; 0x1410 <lcdComm+0x68>
    1416:	31 97       	sbiw	r30, 0x01	; 1
    1418:	ec 1b       	sub	r30, r28
    141a:	fd 0b       	sbc	r31, r29
    141c:	ce 01       	movw	r24, r28
    141e:	6e 2f       	mov	r22, r30
    1420:	0e 94 3a 05 	call	0xa74	; 0xa74 <LCDstring>
	  // display the desired temp 
	  sprintf(lcd_buffer, "%iC      ", dTemp);
    1424:	80 91 6e 04 	lds	r24, 0x046E
    1428:	90 91 6f 04 	lds	r25, 0x046F
    142c:	00 d0       	rcall	.+0      	; 0x142e <lcdComm+0x86>
    142e:	00 d0       	rcall	.+0      	; 0x1430 <lcdComm+0x88>
    1430:	00 d0       	rcall	.+0      	; 0x1432 <lcdComm+0x8a>
    1432:	ed b7       	in	r30, 0x3d	; 61
    1434:	fe b7       	in	r31, 0x3e	; 62
    1436:	31 96       	adiw	r30, 0x01	; 1
    1438:	ad b7       	in	r26, 0x3d	; 61
    143a:	be b7       	in	r27, 0x3e	; 62
    143c:	12 96       	adiw	r26, 0x02	; 2
    143e:	dc 93       	st	X, r29
    1440:	ce 93       	st	-X, r28
    1442:	11 97       	sbiw	r26, 0x01	; 1
    1444:	d3 82       	std	Z+3, r13	; 0x03
    1446:	c2 82       	std	Z+2, r12	; 0x02
    1448:	95 83       	std	Z+5, r25	; 0x05
    144a:	84 83       	std	Z+4, r24	; 0x04
    144c:	0e 94 ab 10 	call	0x2156	; 0x2156 <sprintf>
	  //sprintf(lcd_buffer, "%is      ", time_rem);
	  LCDGotoXY(9, 1);
    1450:	8d b7       	in	r24, 0x3d	; 61
    1452:	9e b7       	in	r25, 0x3e	; 62
    1454:	06 96       	adiw	r24, 0x06	; 6
    1456:	0f b6       	in	r0, 0x3f	; 63
    1458:	f8 94       	cli
    145a:	9e bf       	out	0x3e, r25	; 62
    145c:	0f be       	out	0x3f, r0	; 63
    145e:	8d bf       	out	0x3d, r24	; 61
    1460:	89 e0       	ldi	r24, 0x09	; 9
    1462:	61 e0       	ldi	r22, 0x01	; 1
    1464:	0e 94 4f 05 	call	0xa9e	; 0xa9e <LCDGotoXY>
	  LCDstring(lcd_buffer, strlen(lcd_buffer));
    1468:	fe 01       	movw	r30, r28
    146a:	01 90       	ld	r0, Z+
    146c:	00 20       	and	r0, r0
    146e:	e9 f7       	brne	.-6      	; 0x146a <lcdComm+0xc2>
    1470:	31 97       	sbiw	r30, 0x01	; 1
    1472:	ec 1b       	sub	r30, r28
    1474:	fd 0b       	sbc	r31, r29
    1476:	ce 01       	movw	r24, r28
    1478:	6e 2f       	mov	r22, r30
    147a:	0e 94 3a 05 	call	0xa74	; 0xa74 <LCDstring>
	  trtSignal(SEM_SHARED);
    147e:	84 e0       	ldi	r24, 0x04	; 4
    1480:	0e 94 9f 02 	call	0x53e	; 0x53e <trtSignal>
    1484:	20 91 c6 04 	lds	r18, 0x04C6
    1488:	30 91 c7 04 	lds	r19, 0x04C7
    148c:	40 91 c8 04 	lds	r20, 0x04C8
    1490:	50 91 c9 04 	lds	r21, 0x04C9
    1494:	a9 01       	movw	r20, r18
    1496:	33 27       	eor	r19, r19
    1498:	22 27       	eor	r18, r18
    149a:	60 91 84 00 	lds	r22, 0x0084
    149e:	70 91 85 00 	lds	r23, 0x0085
	  // sleep
	  rel = trtCurrentTime() + SECONDS2TICKS(0.25);
	  dead = trtCurrentTime() + SECONDS2TICKS(0.5);
	  trtSleepUntil(rel, dead);	
    14a2:	e0 90 84 00 	lds	r14, 0x0084
    14a6:	f0 90 85 00 	lds	r15, 0x0085
    14aa:	80 e0       	ldi	r24, 0x00	; 0
    14ac:	90 e0       	ldi	r25, 0x00	; 0
    14ae:	62 0f       	add	r22, r18
    14b0:	73 1f       	adc	r23, r19
    14b2:	84 1f       	adc	r24, r20
    14b4:	95 1f       	adc	r25, r21
    14b6:	6e 5b       	subi	r22, 0xBE	; 190
    14b8:	70 4f       	sbci	r23, 0xF0	; 240
    14ba:	8f 4f       	sbci	r24, 0xFF	; 255
    14bc:	9f 4f       	sbci	r25, 0xFF	; 255
    14be:	00 e0       	ldi	r16, 0x00	; 0
    14c0:	10 e0       	ldi	r17, 0x00	; 0
    14c2:	2e 0d       	add	r18, r14
    14c4:	3f 1d       	adc	r19, r15
    14c6:	40 1f       	adc	r20, r16
    14c8:	51 1f       	adc	r21, r17
    14ca:	2c 57       	subi	r18, 0x7C	; 124
    14cc:	31 4e       	sbci	r19, 0xE1	; 225
    14ce:	4f 4f       	sbci	r20, 0xFF	; 255
    14d0:	5f 4f       	sbci	r21, 0xFF	; 255
    14d2:	0e 94 0b 03 	call	0x616	; 0x616 <trtSleepUntil>
    14d6:	76 cf       	rjmp	.-276    	; 0x13c4 <lcdComm+0x1c>

000014d8 <initialize>:
// http://hekilledmywire.wordpress.com/2011/03/16/using-the-adc-tutorial-part-5/

//********************************************************** 
//Set it all up
void initialize(void) {
	DDRA = 0x00;		// ADC Port
    14d8:	11 b8       	out	0x01, r1	; 1
	PORTA = 0x00;
    14da:	12 b8       	out	0x02, r1	; 2
	DDRC = 0xff;    	// LCD connections
    14dc:	8f ef       	ldi	r24, 0xFF	; 255
    14de:	87 b9       	out	0x07, r24	; 7
	PORTC = 0x00;
    14e0:	18 b8       	out	0x08, r1	; 8
	DDRD |= 0x1C;		// LED status light && Relay
    14e2:	8a b1       	in	r24, 0x0a	; 10
    14e4:	8c 61       	ori	r24, 0x1C	; 28
    14e6:	8a b9       	out	0x0a, r24	; 10

	PORTD |= 0x08;		// Initialize relay to high
    14e8:	5b 9a       	sbi	0x0b, 3	; 11

	// ******************** 
	//initialize variables
	trtWait(SEM_SHARED);
    14ea:	84 e0       	ldi	r24, 0x04	; 4
    14ec:	0e 94 7f 02 	call	0x4fe	; 0x4fe <trtWait>
	cTemp = 0;
    14f0:	10 92 d0 04 	sts	0x04D0, r1
    14f4:	10 92 cf 04 	sts	0x04CF, r1
	dTemp = 0;
    14f8:	10 92 6f 04 	sts	0x046F, r1
    14fc:	10 92 6e 04 	sts	0x046E, r1
	time_rem = 0;
    1500:	10 92 82 04 	sts	0x0482, r1
    1504:	10 92 81 04 	sts	0x0481, r1
	msec = 0;
    1508:	10 92 6b 04 	sts	0x046B, r1
    150c:	10 92 6a 04 	sts	0x046A, r1
	count_en = 0;
    1510:	10 92 6d 04 	sts	0x046D, r1
    1514:	10 92 6c 04 	sts	0x046C, r1
	trtSignal(SEM_SHARED);
    1518:	84 e0       	ldi	r24, 0x04	; 4
    151a:	0e 94 9f 02 	call	0x53e	; 0x53e <trtSignal>

	// ******************** 
	//init LCD
	init_lcd();
    151e:	0e 94 a8 07 	call	0xf50	; 0xf50 <init_lcd>
	LCDclr();
    1522:	0e 94 32 05 	call	0xa64	; 0xa64 <LCDclr>
	// put some stuff on LCD
	CopyStringtoLCD(LCD_line1, 0, 0);//start at char=0 line=0
    1526:	8c ec       	ldi	r24, 0xCC	; 204
    1528:	90 e0       	ldi	r25, 0x00	; 0
    152a:	60 e0       	ldi	r22, 0x00	; 0
    152c:	40 e0       	ldi	r20, 0x00	; 0
    152e:	0e 94 5e 05 	call	0xabc	; 0xabc <CopyStringtoLCD>
	CopyStringtoLCD(LCD_line2, 0, 1); 
    1532:	86 ed       	ldi	r24, 0xD6	; 214
    1534:	90 e0       	ldi	r25, 0x00	; 0
    1536:	60 e0       	ldi	r22, 0x00	; 0
    1538:	41 e0       	ldi	r20, 0x01	; 1
    153a:	0e 94 5e 05 	call	0xabc	; 0xabc <CopyStringtoLCD>

	// ********************
	//init ADC
	adc_init();
    153e:	0e 94 b3 07 	call	0xf66	; 0xf66 <adc_init>

	// ******************** 
	//set up timer 0 for 1 mSec timebase 
	TIMSK0= (1<<OCIE0A);	//turn on timer 0 cmp match ISR 
    1542:	92 e0       	ldi	r25, 0x02	; 2
    1544:	90 93 6e 00 	sts	0x006E, r25
	OCR0A = 249;  		//set the compare reg to 250 time ticks
    1548:	89 ef       	ldi	r24, 0xF9	; 249
    154a:	87 bd       	out	0x27, r24	; 39
	//set prescalar to divide by 64 
	TCCR0B= 3; 	
    154c:	83 e0       	ldi	r24, 0x03	; 3
    154e:	85 bd       	out	0x25, r24	; 37
	// turn on clear-on-match
	TCCR0A= (1<<WGM01) ;
    1550:	94 bd       	out	0x24, r25	; 36

	//*********************
	//init analog input reading
	ant = (analog_input_t *)malloc(sizeof(struct ANALOG_INPUT));
    1552:	82 e1       	ldi	r24, 0x12	; 18
    1554:	90 e0       	ldi	r25, 0x00	; 0
    1556:	0e 94 24 0f 	call	0x1e48	; 0x1e48 <malloc>
    155a:	80 93 64 04 	sts	0x0464, r24
    155e:	90 93 65 04 	sts	0x0465, r25
	analog_input_init(ant);
    1562:	0e 94 17 08 	call	0x102e	; 0x102e <analog_input_init>
	// ********************
	//crank up the ISRs
	sei();
    1566:	78 94       	sei
}  
    1568:	08 95       	ret

0000156a <serialComm>:

/********************************************************************/
// 							FSM Tasks
/********************************************************************/
// --- define task 1  ----------------------------------------
void serialComm(void* args) {
    156a:	8f 92       	push	r8
    156c:	9f 92       	push	r9
    156e:	af 92       	push	r10
    1570:	bf 92       	push	r11
    1572:	cf 92       	push	r12
    1574:	df 92       	push	r13
    1576:	ef 92       	push	r14
    1578:	ff 92       	push	r15
    157a:	0f 93       	push	r16
    157c:	1f 93       	push	r17
    157e:	df 93       	push	r29
    1580:	cf 93       	push	r28
    1582:	00 d0       	rcall	.+0      	; 0x1584 <serialComm+0x1a>
    1584:	00 d0       	rcall	.+0      	; 0x1586 <serialComm+0x1c>
    1586:	00 d0       	rcall	.+0      	; 0x1588 <serialComm+0x1e>
    1588:	cd b7       	in	r28, 0x3d	; 61
    158a:	de b7       	in	r29, 0x3e	; 62
	// Declare the command and num variables
	volatile int num ;
	char cmd[4] ;
    // initialize
    initialize();
    158c:	0e 94 6c 0a 	call	0x14d8	; 0x14d8 <initialize>
	while (TRUE) {
		// commands:
		// 'temp' sets the desired temperature
		// 'time' sets the desired time
		fprintf(stdout, ">") ;
		fscanf(stdin, "%s%u", cmd, &num) ;
    1590:	29 eb       	ldi	r18, 0xB9	; 185
    1592:	82 2e       	mov	r8, r18
    1594:	21 e0       	ldi	r18, 0x01	; 1
    1596:	92 2e       	mov	r9, r18
    1598:	8e 01       	movw	r16, r28
    159a:	0d 5f       	subi	r16, 0xFD	; 253
    159c:	1f 4f       	sbci	r17, 0xFF	; 255
    159e:	5e 01       	movw	r10, r28
    15a0:	08 94       	sec
    15a2:	a1 1c       	adc	r10, r1
    15a4:	b1 1c       	adc	r11, r1
				msec= 0;
			}
		}
		// 6 Minute Egg Mode
		if (strcmp(cmd, "egg") == 0) {
			cTemp = 100;
    15a6:	94 e6       	ldi	r25, 0x64	; 100
    15a8:	c9 2e       	mov	r12, r25
    15aa:	d1 2c       	mov	r13, r1
			time_rem = 3600;
    15ac:	80 e1       	ldi	r24, 0x10	; 16
    15ae:	e8 2e       	mov	r14, r24
    15b0:	8e e0       	ldi	r24, 0x0E	; 14
    15b2:	f8 2e       	mov	r15, r24
    initialize();
	while (TRUE) {
		// commands:
		// 'temp' sets the desired temperature
		// 'time' sets the desired time
		fprintf(stdout, ">") ;
    15b4:	60 91 d7 04 	lds	r22, 0x04D7
    15b8:	70 91 d8 04 	lds	r23, 0x04D8
    15bc:	8e e3       	ldi	r24, 0x3E	; 62
    15be:	90 e0       	ldi	r25, 0x00	; 0
    15c0:	0e 94 43 10 	call	0x2086	; 0x2086 <fputc>
		fscanf(stdin, "%s%u", cmd, &num) ;
    15c4:	8d b7       	in	r24, 0x3d	; 61
    15c6:	9e b7       	in	r25, 0x3e	; 62
    15c8:	08 97       	sbiw	r24, 0x08	; 8
    15ca:	0f b6       	in	r0, 0x3f	; 63
    15cc:	f8 94       	cli
    15ce:	9e bf       	out	0x3e, r25	; 62
    15d0:	0f be       	out	0x3f, r0	; 63
    15d2:	8d bf       	out	0x3d, r24	; 61
    15d4:	ed b7       	in	r30, 0x3d	; 61
    15d6:	fe b7       	in	r31, 0x3e	; 62
    15d8:	31 96       	adiw	r30, 0x01	; 1
    15da:	80 91 d5 04 	lds	r24, 0x04D5
    15de:	90 91 d6 04 	lds	r25, 0x04D6
    15e2:	ad b7       	in	r26, 0x3d	; 61
    15e4:	be b7       	in	r27, 0x3e	; 62
    15e6:	12 96       	adiw	r26, 0x02	; 2
    15e8:	9c 93       	st	X, r25
    15ea:	8e 93       	st	-X, r24
    15ec:	11 97       	sbiw	r26, 0x01	; 1
    15ee:	93 82       	std	Z+3, r9	; 0x03
    15f0:	82 82       	std	Z+2, r8	; 0x02
    15f2:	15 83       	std	Z+5, r17	; 0x05
    15f4:	04 83       	std	Z+4, r16	; 0x04
    15f6:	b7 82       	std	Z+7, r11	; 0x07
    15f8:	a6 82       	std	Z+6, r10	; 0x06
    15fa:	0e 94 9a 10 	call	0x2134	; 0x2134 <fscanf>
		// update shared variables
		trtWait(SEM_SHARED) ;
    15fe:	8d b7       	in	r24, 0x3d	; 61
    1600:	9e b7       	in	r25, 0x3e	; 62
    1602:	08 96       	adiw	r24, 0x08	; 8
    1604:	0f b6       	in	r0, 0x3f	; 63
    1606:	f8 94       	cli
    1608:	9e bf       	out	0x3e, r25	; 62
    160a:	0f be       	out	0x3f, r0	; 63
    160c:	8d bf       	out	0x3d, r24	; 61
    160e:	84 e0       	ldi	r24, 0x04	; 4
    1610:	0e 94 7f 02 	call	0x4fe	; 0x4fe <trtWait>
		if (strcmp(cmd, "temp") == 0) {
    1614:	c8 01       	movw	r24, r16
    1616:	6e eb       	ldi	r22, 0xBE	; 190
    1618:	71 e0       	ldi	r23, 0x01	; 1
    161a:	0e 94 29 10 	call	0x2052	; 0x2052 <strcmp>
    161e:	00 97       	sbiw	r24, 0x00	; 0
    1620:	99 f4       	brne	.+38     	; 0x1648 <serialComm+0xde>
			if (num < 0) {
    1622:	89 81       	ldd	r24, Y+1	; 0x01
    1624:	9a 81       	ldd	r25, Y+2	; 0x02
    1626:	97 ff       	sbrs	r25, 7
    1628:	09 c0       	rjmp	.+18     	; 0x163c <serialComm+0xd2>
				fprintf(stdout, "Please input a positive temperature value.\n\r");
    162a:	60 91 d7 04 	lds	r22, 0x04D7
    162e:	70 91 d8 04 	lds	r23, 0x04D8
    1632:	83 ec       	ldi	r24, 0xC3	; 195
    1634:	91 e0       	ldi	r25, 0x01	; 1
    1636:	0e 94 6f 10 	call	0x20de	; 0x20de <fputs>
    163a:	06 c0       	rjmp	.+12     	; 0x1648 <serialComm+0xde>
			}
			else {
				dTemp = num;
    163c:	89 81       	ldd	r24, Y+1	; 0x01
    163e:	9a 81       	ldd	r25, Y+2	; 0x02
    1640:	90 93 6f 04 	sts	0x046F, r25
    1644:	80 93 6e 04 	sts	0x046E, r24
			}
		}
		if (strcmp(cmd, "time") == 0) {
    1648:	c8 01       	movw	r24, r16
    164a:	60 ef       	ldi	r22, 0xF0	; 240
    164c:	71 e0       	ldi	r23, 0x01	; 1
    164e:	0e 94 29 10 	call	0x2052	; 0x2052 <strcmp>
    1652:	00 97       	sbiw	r24, 0x00	; 0
    1654:	b9 f4       	brne	.+46     	; 0x1684 <serialComm+0x11a>
			if (num < 0) {
    1656:	89 81       	ldd	r24, Y+1	; 0x01
    1658:	9a 81       	ldd	r25, Y+2	; 0x02
    165a:	97 ff       	sbrs	r25, 7
    165c:	09 c0       	rjmp	.+18     	; 0x1670 <serialComm+0x106>
				fprintf(stdout, "Please input a positive time value in seconds.\n\r");
    165e:	60 91 d7 04 	lds	r22, 0x04D7
    1662:	70 91 d8 04 	lds	r23, 0x04D8
    1666:	85 ef       	ldi	r24, 0xF5	; 245
    1668:	91 e0       	ldi	r25, 0x01	; 1
    166a:	0e 94 6f 10 	call	0x20de	; 0x20de <fputs>
    166e:	0a c0       	rjmp	.+20     	; 0x1684 <serialComm+0x11a>
			}
			else {
				time_rem = num;
    1670:	89 81       	ldd	r24, Y+1	; 0x01
    1672:	9a 81       	ldd	r25, Y+2	; 0x02
    1674:	90 93 82 04 	sts	0x0482, r25
    1678:	80 93 81 04 	sts	0x0481, r24
				msec= 0;
    167c:	10 92 6b 04 	sts	0x046B, r1
    1680:	10 92 6a 04 	sts	0x046A, r1
			}
		}
		// 6 Minute Egg Mode
		if (strcmp(cmd, "egg") == 0) {
    1684:	c8 01       	movw	r24, r16
    1686:	66 e2       	ldi	r22, 0x26	; 38
    1688:	72 e0       	ldi	r23, 0x02	; 2
    168a:	0e 94 29 10 	call	0x2052	; 0x2052 <strcmp>
    168e:	00 97       	sbiw	r24, 0x00	; 0
    1690:	41 f4       	brne	.+16     	; 0x16a2 <serialComm+0x138>
			cTemp = 100;
    1692:	d0 92 d0 04 	sts	0x04D0, r13
    1696:	c0 92 cf 04 	sts	0x04CF, r12
			time_rem = 3600;
    169a:	f0 92 82 04 	sts	0x0482, r15
    169e:	e0 92 81 04 	sts	0x0481, r14
		}
		trtSignal(SEM_SHARED);
    16a2:	84 e0       	ldi	r24, 0x04	; 4
    16a4:	0e 94 9f 02 	call	0x53e	; 0x53e <trtSignal>
    16a8:	85 cf       	rjmp	.-246    	; 0x15b4 <serialComm+0x4a>

000016aa <__divsf3>:
    16aa:	a8 e1       	ldi	r26, 0x18	; 24
    16ac:	b0 e0       	ldi	r27, 0x00	; 0
    16ae:	eb e5       	ldi	r30, 0x5B	; 91
    16b0:	fb e0       	ldi	r31, 0x0B	; 11
    16b2:	0c 94 f5 0e 	jmp	0x1dea	; 0x1dea <__prologue_saves__+0x10>
    16b6:	69 83       	std	Y+1, r22	; 0x01
    16b8:	7a 83       	std	Y+2, r23	; 0x02
    16ba:	8b 83       	std	Y+3, r24	; 0x03
    16bc:	9c 83       	std	Y+4, r25	; 0x04
    16be:	2d 83       	std	Y+5, r18	; 0x05
    16c0:	3e 83       	std	Y+6, r19	; 0x06
    16c2:	4f 83       	std	Y+7, r20	; 0x07
    16c4:	58 87       	std	Y+8, r21	; 0x08
    16c6:	b9 e0       	ldi	r27, 0x09	; 9
    16c8:	eb 2e       	mov	r14, r27
    16ca:	f1 2c       	mov	r15, r1
    16cc:	ec 0e       	add	r14, r28
    16ce:	fd 1e       	adc	r15, r29
    16d0:	ce 01       	movw	r24, r28
    16d2:	01 96       	adiw	r24, 0x01	; 1
    16d4:	b7 01       	movw	r22, r14
    16d6:	0e 94 f2 0d 	call	0x1be4	; 0x1be4 <__unpack_f>
    16da:	8e 01       	movw	r16, r28
    16dc:	0f 5e       	subi	r16, 0xEF	; 239
    16de:	1f 4f       	sbci	r17, 0xFF	; 255
    16e0:	ce 01       	movw	r24, r28
    16e2:	05 96       	adiw	r24, 0x05	; 5
    16e4:	b8 01       	movw	r22, r16
    16e6:	0e 94 f2 0d 	call	0x1be4	; 0x1be4 <__unpack_f>
    16ea:	29 85       	ldd	r18, Y+9	; 0x09
    16ec:	22 30       	cpi	r18, 0x02	; 2
    16ee:	08 f4       	brcc	.+2      	; 0x16f2 <__divsf3+0x48>
    16f0:	7e c0       	rjmp	.+252    	; 0x17ee <__divsf3+0x144>
    16f2:	39 89       	ldd	r19, Y+17	; 0x11
    16f4:	32 30       	cpi	r19, 0x02	; 2
    16f6:	10 f4       	brcc	.+4      	; 0x16fc <__divsf3+0x52>
    16f8:	b8 01       	movw	r22, r16
    16fa:	7c c0       	rjmp	.+248    	; 0x17f4 <__divsf3+0x14a>
    16fc:	8a 85       	ldd	r24, Y+10	; 0x0a
    16fe:	9a 89       	ldd	r25, Y+18	; 0x12
    1700:	89 27       	eor	r24, r25
    1702:	8a 87       	std	Y+10, r24	; 0x0a
    1704:	24 30       	cpi	r18, 0x04	; 4
    1706:	11 f0       	breq	.+4      	; 0x170c <__divsf3+0x62>
    1708:	22 30       	cpi	r18, 0x02	; 2
    170a:	31 f4       	brne	.+12     	; 0x1718 <__divsf3+0x6e>
    170c:	23 17       	cp	r18, r19
    170e:	09 f0       	breq	.+2      	; 0x1712 <__divsf3+0x68>
    1710:	6e c0       	rjmp	.+220    	; 0x17ee <__divsf3+0x144>
    1712:	68 e3       	ldi	r22, 0x38	; 56
    1714:	72 e0       	ldi	r23, 0x02	; 2
    1716:	6e c0       	rjmp	.+220    	; 0x17f4 <__divsf3+0x14a>
    1718:	34 30       	cpi	r19, 0x04	; 4
    171a:	39 f4       	brne	.+14     	; 0x172a <__divsf3+0x80>
    171c:	1d 86       	std	Y+13, r1	; 0x0d
    171e:	1e 86       	std	Y+14, r1	; 0x0e
    1720:	1f 86       	std	Y+15, r1	; 0x0f
    1722:	18 8a       	std	Y+16, r1	; 0x10
    1724:	1c 86       	std	Y+12, r1	; 0x0c
    1726:	1b 86       	std	Y+11, r1	; 0x0b
    1728:	04 c0       	rjmp	.+8      	; 0x1732 <__divsf3+0x88>
    172a:	32 30       	cpi	r19, 0x02	; 2
    172c:	21 f4       	brne	.+8      	; 0x1736 <__divsf3+0x8c>
    172e:	84 e0       	ldi	r24, 0x04	; 4
    1730:	89 87       	std	Y+9, r24	; 0x09
    1732:	b7 01       	movw	r22, r14
    1734:	5f c0       	rjmp	.+190    	; 0x17f4 <__divsf3+0x14a>
    1736:	2b 85       	ldd	r18, Y+11	; 0x0b
    1738:	3c 85       	ldd	r19, Y+12	; 0x0c
    173a:	8b 89       	ldd	r24, Y+19	; 0x13
    173c:	9c 89       	ldd	r25, Y+20	; 0x14
    173e:	28 1b       	sub	r18, r24
    1740:	39 0b       	sbc	r19, r25
    1742:	3c 87       	std	Y+12, r19	; 0x0c
    1744:	2b 87       	std	Y+11, r18	; 0x0b
    1746:	ed 84       	ldd	r14, Y+13	; 0x0d
    1748:	fe 84       	ldd	r15, Y+14	; 0x0e
    174a:	0f 85       	ldd	r16, Y+15	; 0x0f
    174c:	18 89       	ldd	r17, Y+16	; 0x10
    174e:	ad 88       	ldd	r10, Y+21	; 0x15
    1750:	be 88       	ldd	r11, Y+22	; 0x16
    1752:	cf 88       	ldd	r12, Y+23	; 0x17
    1754:	d8 8c       	ldd	r13, Y+24	; 0x18
    1756:	ea 14       	cp	r14, r10
    1758:	fb 04       	cpc	r15, r11
    175a:	0c 05       	cpc	r16, r12
    175c:	1d 05       	cpc	r17, r13
    175e:	40 f4       	brcc	.+16     	; 0x1770 <__divsf3+0xc6>
    1760:	ee 0c       	add	r14, r14
    1762:	ff 1c       	adc	r15, r15
    1764:	00 1f       	adc	r16, r16
    1766:	11 1f       	adc	r17, r17
    1768:	21 50       	subi	r18, 0x01	; 1
    176a:	30 40       	sbci	r19, 0x00	; 0
    176c:	3c 87       	std	Y+12, r19	; 0x0c
    176e:	2b 87       	std	Y+11, r18	; 0x0b
    1770:	20 e0       	ldi	r18, 0x00	; 0
    1772:	30 e0       	ldi	r19, 0x00	; 0
    1774:	40 e0       	ldi	r20, 0x00	; 0
    1776:	50 e0       	ldi	r21, 0x00	; 0
    1778:	80 e0       	ldi	r24, 0x00	; 0
    177a:	90 e0       	ldi	r25, 0x00	; 0
    177c:	a0 e0       	ldi	r26, 0x00	; 0
    177e:	b0 e4       	ldi	r27, 0x40	; 64
    1780:	60 e0       	ldi	r22, 0x00	; 0
    1782:	70 e0       	ldi	r23, 0x00	; 0
    1784:	ea 14       	cp	r14, r10
    1786:	fb 04       	cpc	r15, r11
    1788:	0c 05       	cpc	r16, r12
    178a:	1d 05       	cpc	r17, r13
    178c:	40 f0       	brcs	.+16     	; 0x179e <__divsf3+0xf4>
    178e:	28 2b       	or	r18, r24
    1790:	39 2b       	or	r19, r25
    1792:	4a 2b       	or	r20, r26
    1794:	5b 2b       	or	r21, r27
    1796:	ea 18       	sub	r14, r10
    1798:	fb 08       	sbc	r15, r11
    179a:	0c 09       	sbc	r16, r12
    179c:	1d 09       	sbc	r17, r13
    179e:	b6 95       	lsr	r27
    17a0:	a7 95       	ror	r26
    17a2:	97 95       	ror	r25
    17a4:	87 95       	ror	r24
    17a6:	ee 0c       	add	r14, r14
    17a8:	ff 1c       	adc	r15, r15
    17aa:	00 1f       	adc	r16, r16
    17ac:	11 1f       	adc	r17, r17
    17ae:	6f 5f       	subi	r22, 0xFF	; 255
    17b0:	7f 4f       	sbci	r23, 0xFF	; 255
    17b2:	6f 31       	cpi	r22, 0x1F	; 31
    17b4:	71 05       	cpc	r23, r1
    17b6:	31 f7       	brne	.-52     	; 0x1784 <__divsf3+0xda>
    17b8:	da 01       	movw	r26, r20
    17ba:	c9 01       	movw	r24, r18
    17bc:	8f 77       	andi	r24, 0x7F	; 127
    17be:	90 70       	andi	r25, 0x00	; 0
    17c0:	a0 70       	andi	r26, 0x00	; 0
    17c2:	b0 70       	andi	r27, 0x00	; 0
    17c4:	80 34       	cpi	r24, 0x40	; 64
    17c6:	91 05       	cpc	r25, r1
    17c8:	a1 05       	cpc	r26, r1
    17ca:	b1 05       	cpc	r27, r1
    17cc:	61 f4       	brne	.+24     	; 0x17e6 <__divsf3+0x13c>
    17ce:	27 fd       	sbrc	r18, 7
    17d0:	0a c0       	rjmp	.+20     	; 0x17e6 <__divsf3+0x13c>
    17d2:	e1 14       	cp	r14, r1
    17d4:	f1 04       	cpc	r15, r1
    17d6:	01 05       	cpc	r16, r1
    17d8:	11 05       	cpc	r17, r1
    17da:	29 f0       	breq	.+10     	; 0x17e6 <__divsf3+0x13c>
    17dc:	20 5c       	subi	r18, 0xC0	; 192
    17de:	3f 4f       	sbci	r19, 0xFF	; 255
    17e0:	4f 4f       	sbci	r20, 0xFF	; 255
    17e2:	5f 4f       	sbci	r21, 0xFF	; 255
    17e4:	20 78       	andi	r18, 0x80	; 128
    17e6:	2d 87       	std	Y+13, r18	; 0x0d
    17e8:	3e 87       	std	Y+14, r19	; 0x0e
    17ea:	4f 87       	std	Y+15, r20	; 0x0f
    17ec:	58 8b       	std	Y+16, r21	; 0x10
    17ee:	be 01       	movw	r22, r28
    17f0:	67 5f       	subi	r22, 0xF7	; 247
    17f2:	7f 4f       	sbci	r23, 0xFF	; 255
    17f4:	cb 01       	movw	r24, r22
    17f6:	0e 94 1d 0d 	call	0x1a3a	; 0x1a3a <__pack_f>
    17fa:	68 96       	adiw	r28, 0x18	; 24
    17fc:	ea e0       	ldi	r30, 0x0A	; 10
    17fe:	0c 94 11 0f 	jmp	0x1e22	; 0x1e22 <__epilogue_restores__+0x10>

00001802 <__fixsfsi>:
    1802:	ac e0       	ldi	r26, 0x0C	; 12
    1804:	b0 e0       	ldi	r27, 0x00	; 0
    1806:	e7 e0       	ldi	r30, 0x07	; 7
    1808:	fc e0       	ldi	r31, 0x0C	; 12
    180a:	0c 94 fd 0e 	jmp	0x1dfa	; 0x1dfa <__prologue_saves__+0x20>
    180e:	69 83       	std	Y+1, r22	; 0x01
    1810:	7a 83       	std	Y+2, r23	; 0x02
    1812:	8b 83       	std	Y+3, r24	; 0x03
    1814:	9c 83       	std	Y+4, r25	; 0x04
    1816:	ce 01       	movw	r24, r28
    1818:	01 96       	adiw	r24, 0x01	; 1
    181a:	be 01       	movw	r22, r28
    181c:	6b 5f       	subi	r22, 0xFB	; 251
    181e:	7f 4f       	sbci	r23, 0xFF	; 255
    1820:	0e 94 f2 0d 	call	0x1be4	; 0x1be4 <__unpack_f>
    1824:	8d 81       	ldd	r24, Y+5	; 0x05
    1826:	82 30       	cpi	r24, 0x02	; 2
    1828:	61 f1       	breq	.+88     	; 0x1882 <__fixsfsi+0x80>
    182a:	82 30       	cpi	r24, 0x02	; 2
    182c:	50 f1       	brcs	.+84     	; 0x1882 <__fixsfsi+0x80>
    182e:	84 30       	cpi	r24, 0x04	; 4
    1830:	21 f4       	brne	.+8      	; 0x183a <__fixsfsi+0x38>
    1832:	8e 81       	ldd	r24, Y+6	; 0x06
    1834:	88 23       	and	r24, r24
    1836:	51 f1       	breq	.+84     	; 0x188c <__fixsfsi+0x8a>
    1838:	2e c0       	rjmp	.+92     	; 0x1896 <__fixsfsi+0x94>
    183a:	2f 81       	ldd	r18, Y+7	; 0x07
    183c:	38 85       	ldd	r19, Y+8	; 0x08
    183e:	37 fd       	sbrc	r19, 7
    1840:	20 c0       	rjmp	.+64     	; 0x1882 <__fixsfsi+0x80>
    1842:	6e 81       	ldd	r22, Y+6	; 0x06
    1844:	2f 31       	cpi	r18, 0x1F	; 31
    1846:	31 05       	cpc	r19, r1
    1848:	1c f0       	brlt	.+6      	; 0x1850 <__fixsfsi+0x4e>
    184a:	66 23       	and	r22, r22
    184c:	f9 f0       	breq	.+62     	; 0x188c <__fixsfsi+0x8a>
    184e:	23 c0       	rjmp	.+70     	; 0x1896 <__fixsfsi+0x94>
    1850:	8e e1       	ldi	r24, 0x1E	; 30
    1852:	90 e0       	ldi	r25, 0x00	; 0
    1854:	82 1b       	sub	r24, r18
    1856:	93 0b       	sbc	r25, r19
    1858:	29 85       	ldd	r18, Y+9	; 0x09
    185a:	3a 85       	ldd	r19, Y+10	; 0x0a
    185c:	4b 85       	ldd	r20, Y+11	; 0x0b
    185e:	5c 85       	ldd	r21, Y+12	; 0x0c
    1860:	04 c0       	rjmp	.+8      	; 0x186a <__fixsfsi+0x68>
    1862:	56 95       	lsr	r21
    1864:	47 95       	ror	r20
    1866:	37 95       	ror	r19
    1868:	27 95       	ror	r18
    186a:	8a 95       	dec	r24
    186c:	d2 f7       	brpl	.-12     	; 0x1862 <__fixsfsi+0x60>
    186e:	66 23       	and	r22, r22
    1870:	b1 f0       	breq	.+44     	; 0x189e <__fixsfsi+0x9c>
    1872:	50 95       	com	r21
    1874:	40 95       	com	r20
    1876:	30 95       	com	r19
    1878:	21 95       	neg	r18
    187a:	3f 4f       	sbci	r19, 0xFF	; 255
    187c:	4f 4f       	sbci	r20, 0xFF	; 255
    187e:	5f 4f       	sbci	r21, 0xFF	; 255
    1880:	0e c0       	rjmp	.+28     	; 0x189e <__fixsfsi+0x9c>
    1882:	20 e0       	ldi	r18, 0x00	; 0
    1884:	30 e0       	ldi	r19, 0x00	; 0
    1886:	40 e0       	ldi	r20, 0x00	; 0
    1888:	50 e0       	ldi	r21, 0x00	; 0
    188a:	09 c0       	rjmp	.+18     	; 0x189e <__fixsfsi+0x9c>
    188c:	2f ef       	ldi	r18, 0xFF	; 255
    188e:	3f ef       	ldi	r19, 0xFF	; 255
    1890:	4f ef       	ldi	r20, 0xFF	; 255
    1892:	5f e7       	ldi	r21, 0x7F	; 127
    1894:	04 c0       	rjmp	.+8      	; 0x189e <__fixsfsi+0x9c>
    1896:	20 e0       	ldi	r18, 0x00	; 0
    1898:	30 e0       	ldi	r19, 0x00	; 0
    189a:	40 e0       	ldi	r20, 0x00	; 0
    189c:	50 e8       	ldi	r21, 0x80	; 128
    189e:	b9 01       	movw	r22, r18
    18a0:	ca 01       	movw	r24, r20
    18a2:	2c 96       	adiw	r28, 0x0c	; 12
    18a4:	e2 e0       	ldi	r30, 0x02	; 2
    18a6:	0c 94 19 0f 	jmp	0x1e32	; 0x1e32 <__epilogue_restores__+0x20>

000018aa <__floatunsisf>:
    18aa:	a8 e0       	ldi	r26, 0x08	; 8
    18ac:	b0 e0       	ldi	r27, 0x00	; 0
    18ae:	eb e5       	ldi	r30, 0x5B	; 91
    18b0:	fc e0       	ldi	r31, 0x0C	; 12
    18b2:	0c 94 f5 0e 	jmp	0x1dea	; 0x1dea <__prologue_saves__+0x10>
    18b6:	7b 01       	movw	r14, r22
    18b8:	8c 01       	movw	r16, r24
    18ba:	61 15       	cp	r22, r1
    18bc:	71 05       	cpc	r23, r1
    18be:	81 05       	cpc	r24, r1
    18c0:	91 05       	cpc	r25, r1
    18c2:	19 f4       	brne	.+6      	; 0x18ca <__floatunsisf+0x20>
    18c4:	82 e0       	ldi	r24, 0x02	; 2
    18c6:	89 83       	std	Y+1, r24	; 0x01
    18c8:	60 c0       	rjmp	.+192    	; 0x198a <__floatunsisf+0xe0>
    18ca:	83 e0       	ldi	r24, 0x03	; 3
    18cc:	89 83       	std	Y+1, r24	; 0x01
    18ce:	8e e1       	ldi	r24, 0x1E	; 30
    18d0:	c8 2e       	mov	r12, r24
    18d2:	d1 2c       	mov	r13, r1
    18d4:	dc 82       	std	Y+4, r13	; 0x04
    18d6:	cb 82       	std	Y+3, r12	; 0x03
    18d8:	ed 82       	std	Y+5, r14	; 0x05
    18da:	fe 82       	std	Y+6, r15	; 0x06
    18dc:	0f 83       	std	Y+7, r16	; 0x07
    18de:	18 87       	std	Y+8, r17	; 0x08
    18e0:	c8 01       	movw	r24, r16
    18e2:	b7 01       	movw	r22, r14
    18e4:	0e 94 ce 0c 	call	0x199c	; 0x199c <__clzsi2>
    18e8:	fc 01       	movw	r30, r24
    18ea:	31 97       	sbiw	r30, 0x01	; 1
    18ec:	f7 ff       	sbrs	r31, 7
    18ee:	3b c0       	rjmp	.+118    	; 0x1966 <__floatunsisf+0xbc>
    18f0:	22 27       	eor	r18, r18
    18f2:	33 27       	eor	r19, r19
    18f4:	2e 1b       	sub	r18, r30
    18f6:	3f 0b       	sbc	r19, r31
    18f8:	57 01       	movw	r10, r14
    18fa:	68 01       	movw	r12, r16
    18fc:	02 2e       	mov	r0, r18
    18fe:	04 c0       	rjmp	.+8      	; 0x1908 <__floatunsisf+0x5e>
    1900:	d6 94       	lsr	r13
    1902:	c7 94       	ror	r12
    1904:	b7 94       	ror	r11
    1906:	a7 94       	ror	r10
    1908:	0a 94       	dec	r0
    190a:	d2 f7       	brpl	.-12     	; 0x1900 <__floatunsisf+0x56>
    190c:	40 e0       	ldi	r20, 0x00	; 0
    190e:	50 e0       	ldi	r21, 0x00	; 0
    1910:	60 e0       	ldi	r22, 0x00	; 0
    1912:	70 e0       	ldi	r23, 0x00	; 0
    1914:	81 e0       	ldi	r24, 0x01	; 1
    1916:	90 e0       	ldi	r25, 0x00	; 0
    1918:	a0 e0       	ldi	r26, 0x00	; 0
    191a:	b0 e0       	ldi	r27, 0x00	; 0
    191c:	04 c0       	rjmp	.+8      	; 0x1926 <__floatunsisf+0x7c>
    191e:	88 0f       	add	r24, r24
    1920:	99 1f       	adc	r25, r25
    1922:	aa 1f       	adc	r26, r26
    1924:	bb 1f       	adc	r27, r27
    1926:	2a 95       	dec	r18
    1928:	d2 f7       	brpl	.-12     	; 0x191e <__floatunsisf+0x74>
    192a:	01 97       	sbiw	r24, 0x01	; 1
    192c:	a1 09       	sbc	r26, r1
    192e:	b1 09       	sbc	r27, r1
    1930:	8e 21       	and	r24, r14
    1932:	9f 21       	and	r25, r15
    1934:	a0 23       	and	r26, r16
    1936:	b1 23       	and	r27, r17
    1938:	00 97       	sbiw	r24, 0x00	; 0
    193a:	a1 05       	cpc	r26, r1
    193c:	b1 05       	cpc	r27, r1
    193e:	21 f0       	breq	.+8      	; 0x1948 <__floatunsisf+0x9e>
    1940:	41 e0       	ldi	r20, 0x01	; 1
    1942:	50 e0       	ldi	r21, 0x00	; 0
    1944:	60 e0       	ldi	r22, 0x00	; 0
    1946:	70 e0       	ldi	r23, 0x00	; 0
    1948:	4a 29       	or	r20, r10
    194a:	5b 29       	or	r21, r11
    194c:	6c 29       	or	r22, r12
    194e:	7d 29       	or	r23, r13
    1950:	4d 83       	std	Y+5, r20	; 0x05
    1952:	5e 83       	std	Y+6, r21	; 0x06
    1954:	6f 83       	std	Y+7, r22	; 0x07
    1956:	78 87       	std	Y+8, r23	; 0x08
    1958:	8e e1       	ldi	r24, 0x1E	; 30
    195a:	90 e0       	ldi	r25, 0x00	; 0
    195c:	8e 1b       	sub	r24, r30
    195e:	9f 0b       	sbc	r25, r31
    1960:	9c 83       	std	Y+4, r25	; 0x04
    1962:	8b 83       	std	Y+3, r24	; 0x03
    1964:	12 c0       	rjmp	.+36     	; 0x198a <__floatunsisf+0xe0>
    1966:	30 97       	sbiw	r30, 0x00	; 0
    1968:	81 f0       	breq	.+32     	; 0x198a <__floatunsisf+0xe0>
    196a:	0e 2e       	mov	r0, r30
    196c:	04 c0       	rjmp	.+8      	; 0x1976 <__floatunsisf+0xcc>
    196e:	ee 0c       	add	r14, r14
    1970:	ff 1c       	adc	r15, r15
    1972:	00 1f       	adc	r16, r16
    1974:	11 1f       	adc	r17, r17
    1976:	0a 94       	dec	r0
    1978:	d2 f7       	brpl	.-12     	; 0x196e <__floatunsisf+0xc4>
    197a:	ed 82       	std	Y+5, r14	; 0x05
    197c:	fe 82       	std	Y+6, r15	; 0x06
    197e:	0f 83       	std	Y+7, r16	; 0x07
    1980:	18 87       	std	Y+8, r17	; 0x08
    1982:	ce 1a       	sub	r12, r30
    1984:	df 0a       	sbc	r13, r31
    1986:	dc 82       	std	Y+4, r13	; 0x04
    1988:	cb 82       	std	Y+3, r12	; 0x03
    198a:	1a 82       	std	Y+2, r1	; 0x02
    198c:	ce 01       	movw	r24, r28
    198e:	01 96       	adiw	r24, 0x01	; 1
    1990:	0e 94 1d 0d 	call	0x1a3a	; 0x1a3a <__pack_f>
    1994:	28 96       	adiw	r28, 0x08	; 8
    1996:	ea e0       	ldi	r30, 0x0A	; 10
    1998:	0c 94 11 0f 	jmp	0x1e22	; 0x1e22 <__epilogue_restores__+0x10>

0000199c <__clzsi2>:
    199c:	ef 92       	push	r14
    199e:	ff 92       	push	r15
    19a0:	0f 93       	push	r16
    19a2:	1f 93       	push	r17
    19a4:	7b 01       	movw	r14, r22
    19a6:	8c 01       	movw	r16, r24
    19a8:	80 e0       	ldi	r24, 0x00	; 0
    19aa:	e8 16       	cp	r14, r24
    19ac:	80 e0       	ldi	r24, 0x00	; 0
    19ae:	f8 06       	cpc	r15, r24
    19b0:	81 e0       	ldi	r24, 0x01	; 1
    19b2:	08 07       	cpc	r16, r24
    19b4:	80 e0       	ldi	r24, 0x00	; 0
    19b6:	18 07       	cpc	r17, r24
    19b8:	88 f4       	brcc	.+34     	; 0x19dc <__clzsi2+0x40>
    19ba:	8f ef       	ldi	r24, 0xFF	; 255
    19bc:	e8 16       	cp	r14, r24
    19be:	f1 04       	cpc	r15, r1
    19c0:	01 05       	cpc	r16, r1
    19c2:	11 05       	cpc	r17, r1
    19c4:	31 f0       	breq	.+12     	; 0x19d2 <__clzsi2+0x36>
    19c6:	28 f0       	brcs	.+10     	; 0x19d2 <__clzsi2+0x36>
    19c8:	88 e0       	ldi	r24, 0x08	; 8
    19ca:	90 e0       	ldi	r25, 0x00	; 0
    19cc:	a0 e0       	ldi	r26, 0x00	; 0
    19ce:	b0 e0       	ldi	r27, 0x00	; 0
    19d0:	17 c0       	rjmp	.+46     	; 0x1a00 <__clzsi2+0x64>
    19d2:	80 e0       	ldi	r24, 0x00	; 0
    19d4:	90 e0       	ldi	r25, 0x00	; 0
    19d6:	a0 e0       	ldi	r26, 0x00	; 0
    19d8:	b0 e0       	ldi	r27, 0x00	; 0
    19da:	12 c0       	rjmp	.+36     	; 0x1a00 <__clzsi2+0x64>
    19dc:	80 e0       	ldi	r24, 0x00	; 0
    19de:	e8 16       	cp	r14, r24
    19e0:	80 e0       	ldi	r24, 0x00	; 0
    19e2:	f8 06       	cpc	r15, r24
    19e4:	80 e0       	ldi	r24, 0x00	; 0
    19e6:	08 07       	cpc	r16, r24
    19e8:	81 e0       	ldi	r24, 0x01	; 1
    19ea:	18 07       	cpc	r17, r24
    19ec:	28 f0       	brcs	.+10     	; 0x19f8 <__clzsi2+0x5c>
    19ee:	88 e1       	ldi	r24, 0x18	; 24
    19f0:	90 e0       	ldi	r25, 0x00	; 0
    19f2:	a0 e0       	ldi	r26, 0x00	; 0
    19f4:	b0 e0       	ldi	r27, 0x00	; 0
    19f6:	04 c0       	rjmp	.+8      	; 0x1a00 <__clzsi2+0x64>
    19f8:	80 e1       	ldi	r24, 0x10	; 16
    19fa:	90 e0       	ldi	r25, 0x00	; 0
    19fc:	a0 e0       	ldi	r26, 0x00	; 0
    19fe:	b0 e0       	ldi	r27, 0x00	; 0
    1a00:	20 e2       	ldi	r18, 0x20	; 32
    1a02:	30 e0       	ldi	r19, 0x00	; 0
    1a04:	40 e0       	ldi	r20, 0x00	; 0
    1a06:	50 e0       	ldi	r21, 0x00	; 0
    1a08:	28 1b       	sub	r18, r24
    1a0a:	39 0b       	sbc	r19, r25
    1a0c:	4a 0b       	sbc	r20, r26
    1a0e:	5b 0b       	sbc	r21, r27
    1a10:	04 c0       	rjmp	.+8      	; 0x1a1a <__clzsi2+0x7e>
    1a12:	16 95       	lsr	r17
    1a14:	07 95       	ror	r16
    1a16:	f7 94       	ror	r15
    1a18:	e7 94       	ror	r14
    1a1a:	8a 95       	dec	r24
    1a1c:	d2 f7       	brpl	.-12     	; 0x1a12 <__clzsi2+0x76>
    1a1e:	f7 01       	movw	r30, r14
    1a20:	e0 5c       	subi	r30, 0xC0	; 192
    1a22:	fd 4f       	sbci	r31, 0xFD	; 253
    1a24:	80 81       	ld	r24, Z
    1a26:	28 1b       	sub	r18, r24
    1a28:	31 09       	sbc	r19, r1
    1a2a:	41 09       	sbc	r20, r1
    1a2c:	51 09       	sbc	r21, r1
    1a2e:	c9 01       	movw	r24, r18
    1a30:	1f 91       	pop	r17
    1a32:	0f 91       	pop	r16
    1a34:	ff 90       	pop	r15
    1a36:	ef 90       	pop	r14
    1a38:	08 95       	ret

00001a3a <__pack_f>:
    1a3a:	df 92       	push	r13
    1a3c:	ef 92       	push	r14
    1a3e:	ff 92       	push	r15
    1a40:	0f 93       	push	r16
    1a42:	1f 93       	push	r17
    1a44:	fc 01       	movw	r30, r24
    1a46:	e4 80       	ldd	r14, Z+4	; 0x04
    1a48:	f5 80       	ldd	r15, Z+5	; 0x05
    1a4a:	06 81       	ldd	r16, Z+6	; 0x06
    1a4c:	17 81       	ldd	r17, Z+7	; 0x07
    1a4e:	d1 80       	ldd	r13, Z+1	; 0x01
    1a50:	80 81       	ld	r24, Z
    1a52:	82 30       	cpi	r24, 0x02	; 2
    1a54:	48 f4       	brcc	.+18     	; 0x1a68 <__pack_f+0x2e>
    1a56:	80 e0       	ldi	r24, 0x00	; 0
    1a58:	90 e0       	ldi	r25, 0x00	; 0
    1a5a:	a0 e1       	ldi	r26, 0x10	; 16
    1a5c:	b0 e0       	ldi	r27, 0x00	; 0
    1a5e:	e8 2a       	or	r14, r24
    1a60:	f9 2a       	or	r15, r25
    1a62:	0a 2b       	or	r16, r26
    1a64:	1b 2b       	or	r17, r27
    1a66:	a5 c0       	rjmp	.+330    	; 0x1bb2 <__pack_f+0x178>
    1a68:	84 30       	cpi	r24, 0x04	; 4
    1a6a:	09 f4       	brne	.+2      	; 0x1a6e <__pack_f+0x34>
    1a6c:	9f c0       	rjmp	.+318    	; 0x1bac <__pack_f+0x172>
    1a6e:	82 30       	cpi	r24, 0x02	; 2
    1a70:	21 f4       	brne	.+8      	; 0x1a7a <__pack_f+0x40>
    1a72:	ee 24       	eor	r14, r14
    1a74:	ff 24       	eor	r15, r15
    1a76:	87 01       	movw	r16, r14
    1a78:	05 c0       	rjmp	.+10     	; 0x1a84 <__pack_f+0x4a>
    1a7a:	e1 14       	cp	r14, r1
    1a7c:	f1 04       	cpc	r15, r1
    1a7e:	01 05       	cpc	r16, r1
    1a80:	11 05       	cpc	r17, r1
    1a82:	19 f4       	brne	.+6      	; 0x1a8a <__pack_f+0x50>
    1a84:	e0 e0       	ldi	r30, 0x00	; 0
    1a86:	f0 e0       	ldi	r31, 0x00	; 0
    1a88:	96 c0       	rjmp	.+300    	; 0x1bb6 <__pack_f+0x17c>
    1a8a:	62 81       	ldd	r22, Z+2	; 0x02
    1a8c:	73 81       	ldd	r23, Z+3	; 0x03
    1a8e:	9f ef       	ldi	r25, 0xFF	; 255
    1a90:	62 38       	cpi	r22, 0x82	; 130
    1a92:	79 07       	cpc	r23, r25
    1a94:	0c f0       	brlt	.+2      	; 0x1a98 <__pack_f+0x5e>
    1a96:	5b c0       	rjmp	.+182    	; 0x1b4e <__pack_f+0x114>
    1a98:	22 e8       	ldi	r18, 0x82	; 130
    1a9a:	3f ef       	ldi	r19, 0xFF	; 255
    1a9c:	26 1b       	sub	r18, r22
    1a9e:	37 0b       	sbc	r19, r23
    1aa0:	2a 31       	cpi	r18, 0x1A	; 26
    1aa2:	31 05       	cpc	r19, r1
    1aa4:	2c f0       	brlt	.+10     	; 0x1ab0 <__pack_f+0x76>
    1aa6:	20 e0       	ldi	r18, 0x00	; 0
    1aa8:	30 e0       	ldi	r19, 0x00	; 0
    1aaa:	40 e0       	ldi	r20, 0x00	; 0
    1aac:	50 e0       	ldi	r21, 0x00	; 0
    1aae:	2a c0       	rjmp	.+84     	; 0x1b04 <__pack_f+0xca>
    1ab0:	b8 01       	movw	r22, r16
    1ab2:	a7 01       	movw	r20, r14
    1ab4:	02 2e       	mov	r0, r18
    1ab6:	04 c0       	rjmp	.+8      	; 0x1ac0 <__pack_f+0x86>
    1ab8:	76 95       	lsr	r23
    1aba:	67 95       	ror	r22
    1abc:	57 95       	ror	r21
    1abe:	47 95       	ror	r20
    1ac0:	0a 94       	dec	r0
    1ac2:	d2 f7       	brpl	.-12     	; 0x1ab8 <__pack_f+0x7e>
    1ac4:	81 e0       	ldi	r24, 0x01	; 1
    1ac6:	90 e0       	ldi	r25, 0x00	; 0
    1ac8:	a0 e0       	ldi	r26, 0x00	; 0
    1aca:	b0 e0       	ldi	r27, 0x00	; 0
    1acc:	04 c0       	rjmp	.+8      	; 0x1ad6 <__pack_f+0x9c>
    1ace:	88 0f       	add	r24, r24
    1ad0:	99 1f       	adc	r25, r25
    1ad2:	aa 1f       	adc	r26, r26
    1ad4:	bb 1f       	adc	r27, r27
    1ad6:	2a 95       	dec	r18
    1ad8:	d2 f7       	brpl	.-12     	; 0x1ace <__pack_f+0x94>
    1ada:	01 97       	sbiw	r24, 0x01	; 1
    1adc:	a1 09       	sbc	r26, r1
    1ade:	b1 09       	sbc	r27, r1
    1ae0:	8e 21       	and	r24, r14
    1ae2:	9f 21       	and	r25, r15
    1ae4:	a0 23       	and	r26, r16
    1ae6:	b1 23       	and	r27, r17
    1ae8:	00 97       	sbiw	r24, 0x00	; 0
    1aea:	a1 05       	cpc	r26, r1
    1aec:	b1 05       	cpc	r27, r1
    1aee:	21 f0       	breq	.+8      	; 0x1af8 <__pack_f+0xbe>
    1af0:	81 e0       	ldi	r24, 0x01	; 1
    1af2:	90 e0       	ldi	r25, 0x00	; 0
    1af4:	a0 e0       	ldi	r26, 0x00	; 0
    1af6:	b0 e0       	ldi	r27, 0x00	; 0
    1af8:	9a 01       	movw	r18, r20
    1afa:	ab 01       	movw	r20, r22
    1afc:	28 2b       	or	r18, r24
    1afe:	39 2b       	or	r19, r25
    1b00:	4a 2b       	or	r20, r26
    1b02:	5b 2b       	or	r21, r27
    1b04:	da 01       	movw	r26, r20
    1b06:	c9 01       	movw	r24, r18
    1b08:	8f 77       	andi	r24, 0x7F	; 127
    1b0a:	90 70       	andi	r25, 0x00	; 0
    1b0c:	a0 70       	andi	r26, 0x00	; 0
    1b0e:	b0 70       	andi	r27, 0x00	; 0
    1b10:	80 34       	cpi	r24, 0x40	; 64
    1b12:	91 05       	cpc	r25, r1
    1b14:	a1 05       	cpc	r26, r1
    1b16:	b1 05       	cpc	r27, r1
    1b18:	39 f4       	brne	.+14     	; 0x1b28 <__pack_f+0xee>
    1b1a:	27 ff       	sbrs	r18, 7
    1b1c:	09 c0       	rjmp	.+18     	; 0x1b30 <__pack_f+0xf6>
    1b1e:	20 5c       	subi	r18, 0xC0	; 192
    1b20:	3f 4f       	sbci	r19, 0xFF	; 255
    1b22:	4f 4f       	sbci	r20, 0xFF	; 255
    1b24:	5f 4f       	sbci	r21, 0xFF	; 255
    1b26:	04 c0       	rjmp	.+8      	; 0x1b30 <__pack_f+0xf6>
    1b28:	21 5c       	subi	r18, 0xC1	; 193
    1b2a:	3f 4f       	sbci	r19, 0xFF	; 255
    1b2c:	4f 4f       	sbci	r20, 0xFF	; 255
    1b2e:	5f 4f       	sbci	r21, 0xFF	; 255
    1b30:	e0 e0       	ldi	r30, 0x00	; 0
    1b32:	f0 e0       	ldi	r31, 0x00	; 0
    1b34:	20 30       	cpi	r18, 0x00	; 0
    1b36:	a0 e0       	ldi	r26, 0x00	; 0
    1b38:	3a 07       	cpc	r19, r26
    1b3a:	a0 e0       	ldi	r26, 0x00	; 0
    1b3c:	4a 07       	cpc	r20, r26
    1b3e:	a0 e4       	ldi	r26, 0x40	; 64
    1b40:	5a 07       	cpc	r21, r26
    1b42:	10 f0       	brcs	.+4      	; 0x1b48 <__pack_f+0x10e>
    1b44:	e1 e0       	ldi	r30, 0x01	; 1
    1b46:	f0 e0       	ldi	r31, 0x00	; 0
    1b48:	79 01       	movw	r14, r18
    1b4a:	8a 01       	movw	r16, r20
    1b4c:	27 c0       	rjmp	.+78     	; 0x1b9c <__pack_f+0x162>
    1b4e:	60 38       	cpi	r22, 0x80	; 128
    1b50:	71 05       	cpc	r23, r1
    1b52:	64 f5       	brge	.+88     	; 0x1bac <__pack_f+0x172>
    1b54:	fb 01       	movw	r30, r22
    1b56:	e1 58       	subi	r30, 0x81	; 129
    1b58:	ff 4f       	sbci	r31, 0xFF	; 255
    1b5a:	d8 01       	movw	r26, r16
    1b5c:	c7 01       	movw	r24, r14
    1b5e:	8f 77       	andi	r24, 0x7F	; 127
    1b60:	90 70       	andi	r25, 0x00	; 0
    1b62:	a0 70       	andi	r26, 0x00	; 0
    1b64:	b0 70       	andi	r27, 0x00	; 0
    1b66:	80 34       	cpi	r24, 0x40	; 64
    1b68:	91 05       	cpc	r25, r1
    1b6a:	a1 05       	cpc	r26, r1
    1b6c:	b1 05       	cpc	r27, r1
    1b6e:	39 f4       	brne	.+14     	; 0x1b7e <__pack_f+0x144>
    1b70:	e7 fe       	sbrs	r14, 7
    1b72:	0d c0       	rjmp	.+26     	; 0x1b8e <__pack_f+0x154>
    1b74:	80 e4       	ldi	r24, 0x40	; 64
    1b76:	90 e0       	ldi	r25, 0x00	; 0
    1b78:	a0 e0       	ldi	r26, 0x00	; 0
    1b7a:	b0 e0       	ldi	r27, 0x00	; 0
    1b7c:	04 c0       	rjmp	.+8      	; 0x1b86 <__pack_f+0x14c>
    1b7e:	8f e3       	ldi	r24, 0x3F	; 63
    1b80:	90 e0       	ldi	r25, 0x00	; 0
    1b82:	a0 e0       	ldi	r26, 0x00	; 0
    1b84:	b0 e0       	ldi	r27, 0x00	; 0
    1b86:	e8 0e       	add	r14, r24
    1b88:	f9 1e       	adc	r15, r25
    1b8a:	0a 1f       	adc	r16, r26
    1b8c:	1b 1f       	adc	r17, r27
    1b8e:	17 ff       	sbrs	r17, 7
    1b90:	05 c0       	rjmp	.+10     	; 0x1b9c <__pack_f+0x162>
    1b92:	16 95       	lsr	r17
    1b94:	07 95       	ror	r16
    1b96:	f7 94       	ror	r15
    1b98:	e7 94       	ror	r14
    1b9a:	31 96       	adiw	r30, 0x01	; 1
    1b9c:	87 e0       	ldi	r24, 0x07	; 7
    1b9e:	16 95       	lsr	r17
    1ba0:	07 95       	ror	r16
    1ba2:	f7 94       	ror	r15
    1ba4:	e7 94       	ror	r14
    1ba6:	8a 95       	dec	r24
    1ba8:	d1 f7       	brne	.-12     	; 0x1b9e <__pack_f+0x164>
    1baa:	05 c0       	rjmp	.+10     	; 0x1bb6 <__pack_f+0x17c>
    1bac:	ee 24       	eor	r14, r14
    1bae:	ff 24       	eor	r15, r15
    1bb0:	87 01       	movw	r16, r14
    1bb2:	ef ef       	ldi	r30, 0xFF	; 255
    1bb4:	f0 e0       	ldi	r31, 0x00	; 0
    1bb6:	6e 2f       	mov	r22, r30
    1bb8:	67 95       	ror	r22
    1bba:	66 27       	eor	r22, r22
    1bbc:	67 95       	ror	r22
    1bbe:	90 2f       	mov	r25, r16
    1bc0:	9f 77       	andi	r25, 0x7F	; 127
    1bc2:	d7 94       	ror	r13
    1bc4:	dd 24       	eor	r13, r13
    1bc6:	d7 94       	ror	r13
    1bc8:	8e 2f       	mov	r24, r30
    1bca:	86 95       	lsr	r24
    1bcc:	49 2f       	mov	r20, r25
    1bce:	46 2b       	or	r20, r22
    1bd0:	58 2f       	mov	r21, r24
    1bd2:	5d 29       	or	r21, r13
    1bd4:	b7 01       	movw	r22, r14
    1bd6:	ca 01       	movw	r24, r20
    1bd8:	1f 91       	pop	r17
    1bda:	0f 91       	pop	r16
    1bdc:	ff 90       	pop	r15
    1bde:	ef 90       	pop	r14
    1be0:	df 90       	pop	r13
    1be2:	08 95       	ret

00001be4 <__unpack_f>:
    1be4:	fc 01       	movw	r30, r24
    1be6:	db 01       	movw	r26, r22
    1be8:	40 81       	ld	r20, Z
    1bea:	51 81       	ldd	r21, Z+1	; 0x01
    1bec:	22 81       	ldd	r18, Z+2	; 0x02
    1bee:	62 2f       	mov	r22, r18
    1bf0:	6f 77       	andi	r22, 0x7F	; 127
    1bf2:	70 e0       	ldi	r23, 0x00	; 0
    1bf4:	22 1f       	adc	r18, r18
    1bf6:	22 27       	eor	r18, r18
    1bf8:	22 1f       	adc	r18, r18
    1bfa:	93 81       	ldd	r25, Z+3	; 0x03
    1bfc:	89 2f       	mov	r24, r25
    1bfe:	88 0f       	add	r24, r24
    1c00:	82 2b       	or	r24, r18
    1c02:	28 2f       	mov	r18, r24
    1c04:	30 e0       	ldi	r19, 0x00	; 0
    1c06:	99 1f       	adc	r25, r25
    1c08:	99 27       	eor	r25, r25
    1c0a:	99 1f       	adc	r25, r25
    1c0c:	11 96       	adiw	r26, 0x01	; 1
    1c0e:	9c 93       	st	X, r25
    1c10:	11 97       	sbiw	r26, 0x01	; 1
    1c12:	21 15       	cp	r18, r1
    1c14:	31 05       	cpc	r19, r1
    1c16:	a9 f5       	brne	.+106    	; 0x1c82 <__unpack_f+0x9e>
    1c18:	41 15       	cp	r20, r1
    1c1a:	51 05       	cpc	r21, r1
    1c1c:	61 05       	cpc	r22, r1
    1c1e:	71 05       	cpc	r23, r1
    1c20:	11 f4       	brne	.+4      	; 0x1c26 <__unpack_f+0x42>
    1c22:	82 e0       	ldi	r24, 0x02	; 2
    1c24:	37 c0       	rjmp	.+110    	; 0x1c94 <__unpack_f+0xb0>
    1c26:	82 e8       	ldi	r24, 0x82	; 130
    1c28:	9f ef       	ldi	r25, 0xFF	; 255
    1c2a:	13 96       	adiw	r26, 0x03	; 3
    1c2c:	9c 93       	st	X, r25
    1c2e:	8e 93       	st	-X, r24
    1c30:	12 97       	sbiw	r26, 0x02	; 2
    1c32:	9a 01       	movw	r18, r20
    1c34:	ab 01       	movw	r20, r22
    1c36:	67 e0       	ldi	r22, 0x07	; 7
    1c38:	22 0f       	add	r18, r18
    1c3a:	33 1f       	adc	r19, r19
    1c3c:	44 1f       	adc	r20, r20
    1c3e:	55 1f       	adc	r21, r21
    1c40:	6a 95       	dec	r22
    1c42:	d1 f7       	brne	.-12     	; 0x1c38 <__unpack_f+0x54>
    1c44:	83 e0       	ldi	r24, 0x03	; 3
    1c46:	8c 93       	st	X, r24
    1c48:	0d c0       	rjmp	.+26     	; 0x1c64 <__unpack_f+0x80>
    1c4a:	22 0f       	add	r18, r18
    1c4c:	33 1f       	adc	r19, r19
    1c4e:	44 1f       	adc	r20, r20
    1c50:	55 1f       	adc	r21, r21
    1c52:	12 96       	adiw	r26, 0x02	; 2
    1c54:	8d 91       	ld	r24, X+
    1c56:	9c 91       	ld	r25, X
    1c58:	13 97       	sbiw	r26, 0x03	; 3
    1c5a:	01 97       	sbiw	r24, 0x01	; 1
    1c5c:	13 96       	adiw	r26, 0x03	; 3
    1c5e:	9c 93       	st	X, r25
    1c60:	8e 93       	st	-X, r24
    1c62:	12 97       	sbiw	r26, 0x02	; 2
    1c64:	20 30       	cpi	r18, 0x00	; 0
    1c66:	80 e0       	ldi	r24, 0x00	; 0
    1c68:	38 07       	cpc	r19, r24
    1c6a:	80 e0       	ldi	r24, 0x00	; 0
    1c6c:	48 07       	cpc	r20, r24
    1c6e:	80 e4       	ldi	r24, 0x40	; 64
    1c70:	58 07       	cpc	r21, r24
    1c72:	58 f3       	brcs	.-42     	; 0x1c4a <__unpack_f+0x66>
    1c74:	14 96       	adiw	r26, 0x04	; 4
    1c76:	2d 93       	st	X+, r18
    1c78:	3d 93       	st	X+, r19
    1c7a:	4d 93       	st	X+, r20
    1c7c:	5c 93       	st	X, r21
    1c7e:	17 97       	sbiw	r26, 0x07	; 7
    1c80:	08 95       	ret
    1c82:	2f 3f       	cpi	r18, 0xFF	; 255
    1c84:	31 05       	cpc	r19, r1
    1c86:	79 f4       	brne	.+30     	; 0x1ca6 <__unpack_f+0xc2>
    1c88:	41 15       	cp	r20, r1
    1c8a:	51 05       	cpc	r21, r1
    1c8c:	61 05       	cpc	r22, r1
    1c8e:	71 05       	cpc	r23, r1
    1c90:	19 f4       	brne	.+6      	; 0x1c98 <__unpack_f+0xb4>
    1c92:	84 e0       	ldi	r24, 0x04	; 4
    1c94:	8c 93       	st	X, r24
    1c96:	08 95       	ret
    1c98:	64 ff       	sbrs	r22, 4
    1c9a:	03 c0       	rjmp	.+6      	; 0x1ca2 <__unpack_f+0xbe>
    1c9c:	81 e0       	ldi	r24, 0x01	; 1
    1c9e:	8c 93       	st	X, r24
    1ca0:	12 c0       	rjmp	.+36     	; 0x1cc6 <__unpack_f+0xe2>
    1ca2:	1c 92       	st	X, r1
    1ca4:	10 c0       	rjmp	.+32     	; 0x1cc6 <__unpack_f+0xe2>
    1ca6:	2f 57       	subi	r18, 0x7F	; 127
    1ca8:	30 40       	sbci	r19, 0x00	; 0
    1caa:	13 96       	adiw	r26, 0x03	; 3
    1cac:	3c 93       	st	X, r19
    1cae:	2e 93       	st	-X, r18
    1cb0:	12 97       	sbiw	r26, 0x02	; 2
    1cb2:	83 e0       	ldi	r24, 0x03	; 3
    1cb4:	8c 93       	st	X, r24
    1cb6:	87 e0       	ldi	r24, 0x07	; 7
    1cb8:	44 0f       	add	r20, r20
    1cba:	55 1f       	adc	r21, r21
    1cbc:	66 1f       	adc	r22, r22
    1cbe:	77 1f       	adc	r23, r23
    1cc0:	8a 95       	dec	r24
    1cc2:	d1 f7       	brne	.-12     	; 0x1cb8 <__unpack_f+0xd4>
    1cc4:	70 64       	ori	r23, 0x40	; 64
    1cc6:	14 96       	adiw	r26, 0x04	; 4
    1cc8:	4d 93       	st	X+, r20
    1cca:	5d 93       	st	X+, r21
    1ccc:	6d 93       	st	X+, r22
    1cce:	7c 93       	st	X, r23
    1cd0:	17 97       	sbiw	r26, 0x07	; 7
    1cd2:	08 95       	ret

00001cd4 <__mulsi3>:
    1cd4:	62 9f       	mul	r22, r18
    1cd6:	d0 01       	movw	r26, r0
    1cd8:	73 9f       	mul	r23, r19
    1cda:	f0 01       	movw	r30, r0
    1cdc:	82 9f       	mul	r24, r18
    1cde:	e0 0d       	add	r30, r0
    1ce0:	f1 1d       	adc	r31, r1
    1ce2:	64 9f       	mul	r22, r20
    1ce4:	e0 0d       	add	r30, r0
    1ce6:	f1 1d       	adc	r31, r1
    1ce8:	92 9f       	mul	r25, r18
    1cea:	f0 0d       	add	r31, r0
    1cec:	83 9f       	mul	r24, r19
    1cee:	f0 0d       	add	r31, r0
    1cf0:	74 9f       	mul	r23, r20
    1cf2:	f0 0d       	add	r31, r0
    1cf4:	65 9f       	mul	r22, r21
    1cf6:	f0 0d       	add	r31, r0
    1cf8:	99 27       	eor	r25, r25
    1cfa:	72 9f       	mul	r23, r18
    1cfc:	b0 0d       	add	r27, r0
    1cfe:	e1 1d       	adc	r30, r1
    1d00:	f9 1f       	adc	r31, r25
    1d02:	63 9f       	mul	r22, r19
    1d04:	b0 0d       	add	r27, r0
    1d06:	e1 1d       	adc	r30, r1
    1d08:	f9 1f       	adc	r31, r25
    1d0a:	bd 01       	movw	r22, r26
    1d0c:	cf 01       	movw	r24, r30
    1d0e:	11 24       	eor	r1, r1
    1d10:	08 95       	ret

00001d12 <__udivmodhi4>:
    1d12:	aa 1b       	sub	r26, r26
    1d14:	bb 1b       	sub	r27, r27
    1d16:	51 e1       	ldi	r21, 0x11	; 17
    1d18:	07 c0       	rjmp	.+14     	; 0x1d28 <__udivmodhi4_ep>

00001d1a <__udivmodhi4_loop>:
    1d1a:	aa 1f       	adc	r26, r26
    1d1c:	bb 1f       	adc	r27, r27
    1d1e:	a6 17       	cp	r26, r22
    1d20:	b7 07       	cpc	r27, r23
    1d22:	10 f0       	brcs	.+4      	; 0x1d28 <__udivmodhi4_ep>
    1d24:	a6 1b       	sub	r26, r22
    1d26:	b7 0b       	sbc	r27, r23

00001d28 <__udivmodhi4_ep>:
    1d28:	88 1f       	adc	r24, r24
    1d2a:	99 1f       	adc	r25, r25
    1d2c:	5a 95       	dec	r21
    1d2e:	a9 f7       	brne	.-22     	; 0x1d1a <__udivmodhi4_loop>
    1d30:	80 95       	com	r24
    1d32:	90 95       	com	r25
    1d34:	bc 01       	movw	r22, r24
    1d36:	cd 01       	movw	r24, r26
    1d38:	08 95       	ret

00001d3a <__divmodhi4>:
    1d3a:	97 fb       	bst	r25, 7
    1d3c:	09 2e       	mov	r0, r25
    1d3e:	07 26       	eor	r0, r23
    1d40:	0a d0       	rcall	.+20     	; 0x1d56 <__divmodhi4_neg1>
    1d42:	77 fd       	sbrc	r23, 7
    1d44:	04 d0       	rcall	.+8      	; 0x1d4e <__divmodhi4_neg2>
    1d46:	e5 df       	rcall	.-54     	; 0x1d12 <__udivmodhi4>
    1d48:	06 d0       	rcall	.+12     	; 0x1d56 <__divmodhi4_neg1>
    1d4a:	00 20       	and	r0, r0
    1d4c:	1a f4       	brpl	.+6      	; 0x1d54 <__divmodhi4_exit>

00001d4e <__divmodhi4_neg2>:
    1d4e:	70 95       	com	r23
    1d50:	61 95       	neg	r22
    1d52:	7f 4f       	sbci	r23, 0xFF	; 255

00001d54 <__divmodhi4_exit>:
    1d54:	08 95       	ret

00001d56 <__divmodhi4_neg1>:
    1d56:	f6 f7       	brtc	.-4      	; 0x1d54 <__divmodhi4_exit>
    1d58:	90 95       	com	r25
    1d5a:	81 95       	neg	r24
    1d5c:	9f 4f       	sbci	r25, 0xFF	; 255
    1d5e:	08 95       	ret

00001d60 <__divmodsi4>:
    1d60:	97 fb       	bst	r25, 7
    1d62:	09 2e       	mov	r0, r25
    1d64:	05 26       	eor	r0, r21
    1d66:	0e d0       	rcall	.+28     	; 0x1d84 <__divmodsi4_neg1>
    1d68:	57 fd       	sbrc	r21, 7
    1d6a:	04 d0       	rcall	.+8      	; 0x1d74 <__divmodsi4_neg2>
    1d6c:	14 d0       	rcall	.+40     	; 0x1d96 <__udivmodsi4>
    1d6e:	0a d0       	rcall	.+20     	; 0x1d84 <__divmodsi4_neg1>
    1d70:	00 1c       	adc	r0, r0
    1d72:	38 f4       	brcc	.+14     	; 0x1d82 <__divmodsi4_exit>

00001d74 <__divmodsi4_neg2>:
    1d74:	50 95       	com	r21
    1d76:	40 95       	com	r20
    1d78:	30 95       	com	r19
    1d7a:	21 95       	neg	r18
    1d7c:	3f 4f       	sbci	r19, 0xFF	; 255
    1d7e:	4f 4f       	sbci	r20, 0xFF	; 255
    1d80:	5f 4f       	sbci	r21, 0xFF	; 255

00001d82 <__divmodsi4_exit>:
    1d82:	08 95       	ret

00001d84 <__divmodsi4_neg1>:
    1d84:	f6 f7       	brtc	.-4      	; 0x1d82 <__divmodsi4_exit>
    1d86:	90 95       	com	r25
    1d88:	80 95       	com	r24
    1d8a:	70 95       	com	r23
    1d8c:	61 95       	neg	r22
    1d8e:	7f 4f       	sbci	r23, 0xFF	; 255
    1d90:	8f 4f       	sbci	r24, 0xFF	; 255
    1d92:	9f 4f       	sbci	r25, 0xFF	; 255
    1d94:	08 95       	ret

00001d96 <__udivmodsi4>:
    1d96:	a1 e2       	ldi	r26, 0x21	; 33
    1d98:	1a 2e       	mov	r1, r26
    1d9a:	aa 1b       	sub	r26, r26
    1d9c:	bb 1b       	sub	r27, r27
    1d9e:	fd 01       	movw	r30, r26
    1da0:	0d c0       	rjmp	.+26     	; 0x1dbc <__udivmodsi4_ep>

00001da2 <__udivmodsi4_loop>:
    1da2:	aa 1f       	adc	r26, r26
    1da4:	bb 1f       	adc	r27, r27
    1da6:	ee 1f       	adc	r30, r30
    1da8:	ff 1f       	adc	r31, r31
    1daa:	a2 17       	cp	r26, r18
    1dac:	b3 07       	cpc	r27, r19
    1dae:	e4 07       	cpc	r30, r20
    1db0:	f5 07       	cpc	r31, r21
    1db2:	20 f0       	brcs	.+8      	; 0x1dbc <__udivmodsi4_ep>
    1db4:	a2 1b       	sub	r26, r18
    1db6:	b3 0b       	sbc	r27, r19
    1db8:	e4 0b       	sbc	r30, r20
    1dba:	f5 0b       	sbc	r31, r21

00001dbc <__udivmodsi4_ep>:
    1dbc:	66 1f       	adc	r22, r22
    1dbe:	77 1f       	adc	r23, r23
    1dc0:	88 1f       	adc	r24, r24
    1dc2:	99 1f       	adc	r25, r25
    1dc4:	1a 94       	dec	r1
    1dc6:	69 f7       	brne	.-38     	; 0x1da2 <__udivmodsi4_loop>
    1dc8:	60 95       	com	r22
    1dca:	70 95       	com	r23
    1dcc:	80 95       	com	r24
    1dce:	90 95       	com	r25
    1dd0:	9b 01       	movw	r18, r22
    1dd2:	ac 01       	movw	r20, r24
    1dd4:	bd 01       	movw	r22, r26
    1dd6:	cf 01       	movw	r24, r30
    1dd8:	08 95       	ret

00001dda <__prologue_saves__>:
    1dda:	2f 92       	push	r2
    1ddc:	3f 92       	push	r3
    1dde:	4f 92       	push	r4
    1de0:	5f 92       	push	r5
    1de2:	6f 92       	push	r6
    1de4:	7f 92       	push	r7
    1de6:	8f 92       	push	r8
    1de8:	9f 92       	push	r9
    1dea:	af 92       	push	r10
    1dec:	bf 92       	push	r11
    1dee:	cf 92       	push	r12
    1df0:	df 92       	push	r13
    1df2:	ef 92       	push	r14
    1df4:	ff 92       	push	r15
    1df6:	0f 93       	push	r16
    1df8:	1f 93       	push	r17
    1dfa:	cf 93       	push	r28
    1dfc:	df 93       	push	r29
    1dfe:	cd b7       	in	r28, 0x3d	; 61
    1e00:	de b7       	in	r29, 0x3e	; 62
    1e02:	ca 1b       	sub	r28, r26
    1e04:	db 0b       	sbc	r29, r27
    1e06:	0f b6       	in	r0, 0x3f	; 63
    1e08:	f8 94       	cli
    1e0a:	de bf       	out	0x3e, r29	; 62
    1e0c:	0f be       	out	0x3f, r0	; 63
    1e0e:	cd bf       	out	0x3d, r28	; 61
    1e10:	09 94       	ijmp

00001e12 <__epilogue_restores__>:
    1e12:	2a 88       	ldd	r2, Y+18	; 0x12
    1e14:	39 88       	ldd	r3, Y+17	; 0x11
    1e16:	48 88       	ldd	r4, Y+16	; 0x10
    1e18:	5f 84       	ldd	r5, Y+15	; 0x0f
    1e1a:	6e 84       	ldd	r6, Y+14	; 0x0e
    1e1c:	7d 84       	ldd	r7, Y+13	; 0x0d
    1e1e:	8c 84       	ldd	r8, Y+12	; 0x0c
    1e20:	9b 84       	ldd	r9, Y+11	; 0x0b
    1e22:	aa 84       	ldd	r10, Y+10	; 0x0a
    1e24:	b9 84       	ldd	r11, Y+9	; 0x09
    1e26:	c8 84       	ldd	r12, Y+8	; 0x08
    1e28:	df 80       	ldd	r13, Y+7	; 0x07
    1e2a:	ee 80       	ldd	r14, Y+6	; 0x06
    1e2c:	fd 80       	ldd	r15, Y+5	; 0x05
    1e2e:	0c 81       	ldd	r16, Y+4	; 0x04
    1e30:	1b 81       	ldd	r17, Y+3	; 0x03
    1e32:	aa 81       	ldd	r26, Y+2	; 0x02
    1e34:	b9 81       	ldd	r27, Y+1	; 0x01
    1e36:	ce 0f       	add	r28, r30
    1e38:	d1 1d       	adc	r29, r1
    1e3a:	0f b6       	in	r0, 0x3f	; 63
    1e3c:	f8 94       	cli
    1e3e:	de bf       	out	0x3e, r29	; 62
    1e40:	0f be       	out	0x3f, r0	; 63
    1e42:	cd bf       	out	0x3d, r28	; 61
    1e44:	ed 01       	movw	r28, r26
    1e46:	08 95       	ret

00001e48 <malloc>:
    1e48:	cf 93       	push	r28
    1e4a:	df 93       	push	r29
    1e4c:	bc 01       	movw	r22, r24
    1e4e:	82 30       	cpi	r24, 0x02	; 2
    1e50:	91 05       	cpc	r25, r1
    1e52:	10 f4       	brcc	.+4      	; 0x1e58 <malloc+0x10>
    1e54:	62 e0       	ldi	r22, 0x02	; 2
    1e56:	70 e0       	ldi	r23, 0x00	; 0
    1e58:	a0 91 d3 04 	lds	r26, 0x04D3
    1e5c:	b0 91 d4 04 	lds	r27, 0x04D4
    1e60:	ed 01       	movw	r28, r26
    1e62:	e0 e0       	ldi	r30, 0x00	; 0
    1e64:	f0 e0       	ldi	r31, 0x00	; 0
    1e66:	40 e0       	ldi	r20, 0x00	; 0
    1e68:	50 e0       	ldi	r21, 0x00	; 0
    1e6a:	21 c0       	rjmp	.+66     	; 0x1eae <malloc+0x66>
    1e6c:	88 81       	ld	r24, Y
    1e6e:	99 81       	ldd	r25, Y+1	; 0x01
    1e70:	86 17       	cp	r24, r22
    1e72:	97 07       	cpc	r25, r23
    1e74:	69 f4       	brne	.+26     	; 0x1e90 <malloc+0x48>
    1e76:	8a 81       	ldd	r24, Y+2	; 0x02
    1e78:	9b 81       	ldd	r25, Y+3	; 0x03
    1e7a:	30 97       	sbiw	r30, 0x00	; 0
    1e7c:	19 f0       	breq	.+6      	; 0x1e84 <malloc+0x3c>
    1e7e:	93 83       	std	Z+3, r25	; 0x03
    1e80:	82 83       	std	Z+2, r24	; 0x02
    1e82:	04 c0       	rjmp	.+8      	; 0x1e8c <malloc+0x44>
    1e84:	90 93 d4 04 	sts	0x04D4, r25
    1e88:	80 93 d3 04 	sts	0x04D3, r24
    1e8c:	fe 01       	movw	r30, r28
    1e8e:	34 c0       	rjmp	.+104    	; 0x1ef8 <malloc+0xb0>
    1e90:	68 17       	cp	r22, r24
    1e92:	79 07       	cpc	r23, r25
    1e94:	38 f4       	brcc	.+14     	; 0x1ea4 <malloc+0x5c>
    1e96:	41 15       	cp	r20, r1
    1e98:	51 05       	cpc	r21, r1
    1e9a:	19 f0       	breq	.+6      	; 0x1ea2 <malloc+0x5a>
    1e9c:	84 17       	cp	r24, r20
    1e9e:	95 07       	cpc	r25, r21
    1ea0:	08 f4       	brcc	.+2      	; 0x1ea4 <malloc+0x5c>
    1ea2:	ac 01       	movw	r20, r24
    1ea4:	fe 01       	movw	r30, r28
    1ea6:	8a 81       	ldd	r24, Y+2	; 0x02
    1ea8:	9b 81       	ldd	r25, Y+3	; 0x03
    1eaa:	9c 01       	movw	r18, r24
    1eac:	e9 01       	movw	r28, r18
    1eae:	20 97       	sbiw	r28, 0x00	; 0
    1eb0:	e9 f6       	brne	.-70     	; 0x1e6c <malloc+0x24>
    1eb2:	41 15       	cp	r20, r1
    1eb4:	51 05       	cpc	r21, r1
    1eb6:	a9 f1       	breq	.+106    	; 0x1f22 <malloc+0xda>
    1eb8:	ca 01       	movw	r24, r20
    1eba:	86 1b       	sub	r24, r22
    1ebc:	97 0b       	sbc	r25, r23
    1ebe:	04 97       	sbiw	r24, 0x04	; 4
    1ec0:	08 f4       	brcc	.+2      	; 0x1ec4 <malloc+0x7c>
    1ec2:	ba 01       	movw	r22, r20
    1ec4:	e0 e0       	ldi	r30, 0x00	; 0
    1ec6:	f0 e0       	ldi	r31, 0x00	; 0
    1ec8:	2a c0       	rjmp	.+84     	; 0x1f1e <malloc+0xd6>
    1eca:	8d 91       	ld	r24, X+
    1ecc:	9c 91       	ld	r25, X
    1ece:	11 97       	sbiw	r26, 0x01	; 1
    1ed0:	84 17       	cp	r24, r20
    1ed2:	95 07       	cpc	r25, r21
    1ed4:	f9 f4       	brne	.+62     	; 0x1f14 <malloc+0xcc>
    1ed6:	64 17       	cp	r22, r20
    1ed8:	75 07       	cpc	r23, r21
    1eda:	81 f4       	brne	.+32     	; 0x1efc <malloc+0xb4>
    1edc:	12 96       	adiw	r26, 0x02	; 2
    1ede:	8d 91       	ld	r24, X+
    1ee0:	9c 91       	ld	r25, X
    1ee2:	13 97       	sbiw	r26, 0x03	; 3
    1ee4:	30 97       	sbiw	r30, 0x00	; 0
    1ee6:	19 f0       	breq	.+6      	; 0x1eee <malloc+0xa6>
    1ee8:	93 83       	std	Z+3, r25	; 0x03
    1eea:	82 83       	std	Z+2, r24	; 0x02
    1eec:	04 c0       	rjmp	.+8      	; 0x1ef6 <malloc+0xae>
    1eee:	90 93 d4 04 	sts	0x04D4, r25
    1ef2:	80 93 d3 04 	sts	0x04D3, r24
    1ef6:	fd 01       	movw	r30, r26
    1ef8:	32 96       	adiw	r30, 0x02	; 2
    1efa:	4f c0       	rjmp	.+158    	; 0x1f9a <malloc+0x152>
    1efc:	ca 01       	movw	r24, r20
    1efe:	86 1b       	sub	r24, r22
    1f00:	97 0b       	sbc	r25, r23
    1f02:	fd 01       	movw	r30, r26
    1f04:	e8 0f       	add	r30, r24
    1f06:	f9 1f       	adc	r31, r25
    1f08:	61 93       	st	Z+, r22
    1f0a:	71 93       	st	Z+, r23
    1f0c:	02 97       	sbiw	r24, 0x02	; 2
    1f0e:	8d 93       	st	X+, r24
    1f10:	9c 93       	st	X, r25
    1f12:	43 c0       	rjmp	.+134    	; 0x1f9a <malloc+0x152>
    1f14:	fd 01       	movw	r30, r26
    1f16:	82 81       	ldd	r24, Z+2	; 0x02
    1f18:	93 81       	ldd	r25, Z+3	; 0x03
    1f1a:	9c 01       	movw	r18, r24
    1f1c:	d9 01       	movw	r26, r18
    1f1e:	10 97       	sbiw	r26, 0x00	; 0
    1f20:	a1 f6       	brne	.-88     	; 0x1eca <malloc+0x82>
    1f22:	80 91 d1 04 	lds	r24, 0x04D1
    1f26:	90 91 d2 04 	lds	r25, 0x04D2
    1f2a:	89 2b       	or	r24, r25
    1f2c:	41 f4       	brne	.+16     	; 0x1f3e <malloc+0xf6>
    1f2e:	80 91 42 03 	lds	r24, 0x0342
    1f32:	90 91 43 03 	lds	r25, 0x0343
    1f36:	90 93 d2 04 	sts	0x04D2, r25
    1f3a:	80 93 d1 04 	sts	0x04D1, r24
    1f3e:	40 91 44 03 	lds	r20, 0x0344
    1f42:	50 91 45 03 	lds	r21, 0x0345
    1f46:	41 15       	cp	r20, r1
    1f48:	51 05       	cpc	r21, r1
    1f4a:	41 f4       	brne	.+16     	; 0x1f5c <malloc+0x114>
    1f4c:	4d b7       	in	r20, 0x3d	; 61
    1f4e:	5e b7       	in	r21, 0x3e	; 62
    1f50:	80 91 40 03 	lds	r24, 0x0340
    1f54:	90 91 41 03 	lds	r25, 0x0341
    1f58:	48 1b       	sub	r20, r24
    1f5a:	59 0b       	sbc	r21, r25
    1f5c:	20 91 d1 04 	lds	r18, 0x04D1
    1f60:	30 91 d2 04 	lds	r19, 0x04D2
    1f64:	24 17       	cp	r18, r20
    1f66:	35 07       	cpc	r19, r21
    1f68:	b0 f4       	brcc	.+44     	; 0x1f96 <malloc+0x14e>
    1f6a:	ca 01       	movw	r24, r20
    1f6c:	82 1b       	sub	r24, r18
    1f6e:	93 0b       	sbc	r25, r19
    1f70:	86 17       	cp	r24, r22
    1f72:	97 07       	cpc	r25, r23
    1f74:	80 f0       	brcs	.+32     	; 0x1f96 <malloc+0x14e>
    1f76:	ab 01       	movw	r20, r22
    1f78:	4e 5f       	subi	r20, 0xFE	; 254
    1f7a:	5f 4f       	sbci	r21, 0xFF	; 255
    1f7c:	84 17       	cp	r24, r20
    1f7e:	95 07       	cpc	r25, r21
    1f80:	50 f0       	brcs	.+20     	; 0x1f96 <malloc+0x14e>
    1f82:	42 0f       	add	r20, r18
    1f84:	53 1f       	adc	r21, r19
    1f86:	50 93 d2 04 	sts	0x04D2, r21
    1f8a:	40 93 d1 04 	sts	0x04D1, r20
    1f8e:	f9 01       	movw	r30, r18
    1f90:	61 93       	st	Z+, r22
    1f92:	71 93       	st	Z+, r23
    1f94:	02 c0       	rjmp	.+4      	; 0x1f9a <malloc+0x152>
    1f96:	e0 e0       	ldi	r30, 0x00	; 0
    1f98:	f0 e0       	ldi	r31, 0x00	; 0
    1f9a:	cf 01       	movw	r24, r30
    1f9c:	df 91       	pop	r29
    1f9e:	cf 91       	pop	r28
    1fa0:	08 95       	ret

00001fa2 <free>:
    1fa2:	cf 93       	push	r28
    1fa4:	df 93       	push	r29
    1fa6:	00 97       	sbiw	r24, 0x00	; 0
    1fa8:	09 f4       	brne	.+2      	; 0x1fac <free+0xa>
    1faa:	50 c0       	rjmp	.+160    	; 0x204c <free+0xaa>
    1fac:	ec 01       	movw	r28, r24
    1fae:	22 97       	sbiw	r28, 0x02	; 2
    1fb0:	1b 82       	std	Y+3, r1	; 0x03
    1fb2:	1a 82       	std	Y+2, r1	; 0x02
    1fb4:	a0 91 d3 04 	lds	r26, 0x04D3
    1fb8:	b0 91 d4 04 	lds	r27, 0x04D4
    1fbc:	10 97       	sbiw	r26, 0x00	; 0
    1fbe:	09 f1       	breq	.+66     	; 0x2002 <free+0x60>
    1fc0:	40 e0       	ldi	r20, 0x00	; 0
    1fc2:	50 e0       	ldi	r21, 0x00	; 0
    1fc4:	ac 17       	cp	r26, r28
    1fc6:	bd 07       	cpc	r27, r29
    1fc8:	08 f1       	brcs	.+66     	; 0x200c <free+0x6a>
    1fca:	bb 83       	std	Y+3, r27	; 0x03
    1fcc:	aa 83       	std	Y+2, r26	; 0x02
    1fce:	fe 01       	movw	r30, r28
    1fd0:	21 91       	ld	r18, Z+
    1fd2:	31 91       	ld	r19, Z+
    1fd4:	e2 0f       	add	r30, r18
    1fd6:	f3 1f       	adc	r31, r19
    1fd8:	ae 17       	cp	r26, r30
    1fda:	bf 07       	cpc	r27, r31
    1fdc:	79 f4       	brne	.+30     	; 0x1ffc <free+0x5a>
    1fde:	8d 91       	ld	r24, X+
    1fe0:	9c 91       	ld	r25, X
    1fe2:	11 97       	sbiw	r26, 0x01	; 1
    1fe4:	28 0f       	add	r18, r24
    1fe6:	39 1f       	adc	r19, r25
    1fe8:	2e 5f       	subi	r18, 0xFE	; 254
    1fea:	3f 4f       	sbci	r19, 0xFF	; 255
    1fec:	39 83       	std	Y+1, r19	; 0x01
    1fee:	28 83       	st	Y, r18
    1ff0:	12 96       	adiw	r26, 0x02	; 2
    1ff2:	8d 91       	ld	r24, X+
    1ff4:	9c 91       	ld	r25, X
    1ff6:	13 97       	sbiw	r26, 0x03	; 3
    1ff8:	9b 83       	std	Y+3, r25	; 0x03
    1ffa:	8a 83       	std	Y+2, r24	; 0x02
    1ffc:	41 15       	cp	r20, r1
    1ffe:	51 05       	cpc	r21, r1
    2000:	71 f4       	brne	.+28     	; 0x201e <free+0x7c>
    2002:	d0 93 d4 04 	sts	0x04D4, r29
    2006:	c0 93 d3 04 	sts	0x04D3, r28
    200a:	20 c0       	rjmp	.+64     	; 0x204c <free+0xaa>
    200c:	12 96       	adiw	r26, 0x02	; 2
    200e:	8d 91       	ld	r24, X+
    2010:	9c 91       	ld	r25, X
    2012:	13 97       	sbiw	r26, 0x03	; 3
    2014:	ad 01       	movw	r20, r26
    2016:	00 97       	sbiw	r24, 0x00	; 0
    2018:	11 f0       	breq	.+4      	; 0x201e <free+0x7c>
    201a:	dc 01       	movw	r26, r24
    201c:	d3 cf       	rjmp	.-90     	; 0x1fc4 <free+0x22>
    201e:	fa 01       	movw	r30, r20
    2020:	d3 83       	std	Z+3, r29	; 0x03
    2022:	c2 83       	std	Z+2, r28	; 0x02
    2024:	21 91       	ld	r18, Z+
    2026:	31 91       	ld	r19, Z+
    2028:	e2 0f       	add	r30, r18
    202a:	f3 1f       	adc	r31, r19
    202c:	ce 17       	cp	r28, r30
    202e:	df 07       	cpc	r29, r31
    2030:	69 f4       	brne	.+26     	; 0x204c <free+0xaa>
    2032:	88 81       	ld	r24, Y
    2034:	99 81       	ldd	r25, Y+1	; 0x01
    2036:	28 0f       	add	r18, r24
    2038:	39 1f       	adc	r19, r25
    203a:	2e 5f       	subi	r18, 0xFE	; 254
    203c:	3f 4f       	sbci	r19, 0xFF	; 255
    203e:	fa 01       	movw	r30, r20
    2040:	31 83       	std	Z+1, r19	; 0x01
    2042:	20 83       	st	Z, r18
    2044:	8a 81       	ldd	r24, Y+2	; 0x02
    2046:	9b 81       	ldd	r25, Y+3	; 0x03
    2048:	93 83       	std	Z+3, r25	; 0x03
    204a:	82 83       	std	Z+2, r24	; 0x02
    204c:	df 91       	pop	r29
    204e:	cf 91       	pop	r28
    2050:	08 95       	ret

00002052 <strcmp>:
    2052:	fb 01       	movw	r30, r22
    2054:	dc 01       	movw	r26, r24
    2056:	8d 91       	ld	r24, X+
    2058:	01 90       	ld	r0, Z+
    205a:	80 19       	sub	r24, r0
    205c:	01 10       	cpse	r0, r1
    205e:	d9 f3       	breq	.-10     	; 0x2056 <strcmp+0x4>
    2060:	99 0b       	sbc	r25, r25
    2062:	08 95       	ret

00002064 <fprintf>:
    2064:	df 93       	push	r29
    2066:	cf 93       	push	r28
    2068:	cd b7       	in	r28, 0x3d	; 61
    206a:	de b7       	in	r29, 0x3e	; 62
    206c:	9e 01       	movw	r18, r28
    206e:	27 5f       	subi	r18, 0xF7	; 247
    2070:	3f 4f       	sbci	r19, 0xFF	; 255
    2072:	8d 81       	ldd	r24, Y+5	; 0x05
    2074:	9e 81       	ldd	r25, Y+6	; 0x06
    2076:	6f 81       	ldd	r22, Y+7	; 0x07
    2078:	78 85       	ldd	r23, Y+8	; 0x08
    207a:	a9 01       	movw	r20, r18
    207c:	0e 94 dc 10 	call	0x21b8	; 0x21b8 <vfprintf>
    2080:	cf 91       	pop	r28
    2082:	df 91       	pop	r29
    2084:	08 95       	ret

00002086 <fputc>:
    2086:	0f 93       	push	r16
    2088:	1f 93       	push	r17
    208a:	cf 93       	push	r28
    208c:	df 93       	push	r29
    208e:	8c 01       	movw	r16, r24
    2090:	eb 01       	movw	r28, r22
    2092:	8b 81       	ldd	r24, Y+3	; 0x03
    2094:	81 ff       	sbrs	r24, 1
    2096:	1b c0       	rjmp	.+54     	; 0x20ce <fputc+0x48>
    2098:	82 ff       	sbrs	r24, 2
    209a:	0d c0       	rjmp	.+26     	; 0x20b6 <fputc+0x30>
    209c:	2e 81       	ldd	r18, Y+6	; 0x06
    209e:	3f 81       	ldd	r19, Y+7	; 0x07
    20a0:	8c 81       	ldd	r24, Y+4	; 0x04
    20a2:	9d 81       	ldd	r25, Y+5	; 0x05
    20a4:	28 17       	cp	r18, r24
    20a6:	39 07       	cpc	r19, r25
    20a8:	64 f4       	brge	.+24     	; 0x20c2 <fputc+0x3c>
    20aa:	e8 81       	ld	r30, Y
    20ac:	f9 81       	ldd	r31, Y+1	; 0x01
    20ae:	01 93       	st	Z+, r16
    20b0:	f9 83       	std	Y+1, r31	; 0x01
    20b2:	e8 83       	st	Y, r30
    20b4:	06 c0       	rjmp	.+12     	; 0x20c2 <fputc+0x3c>
    20b6:	e8 85       	ldd	r30, Y+8	; 0x08
    20b8:	f9 85       	ldd	r31, Y+9	; 0x09
    20ba:	80 2f       	mov	r24, r16
    20bc:	09 95       	icall
    20be:	89 2b       	or	r24, r25
    20c0:	31 f4       	brne	.+12     	; 0x20ce <fputc+0x48>
    20c2:	8e 81       	ldd	r24, Y+6	; 0x06
    20c4:	9f 81       	ldd	r25, Y+7	; 0x07
    20c6:	01 96       	adiw	r24, 0x01	; 1
    20c8:	9f 83       	std	Y+7, r25	; 0x07
    20ca:	8e 83       	std	Y+6, r24	; 0x06
    20cc:	02 c0       	rjmp	.+4      	; 0x20d2 <fputc+0x4c>
    20ce:	0f ef       	ldi	r16, 0xFF	; 255
    20d0:	1f ef       	ldi	r17, 0xFF	; 255
    20d2:	c8 01       	movw	r24, r16
    20d4:	df 91       	pop	r29
    20d6:	cf 91       	pop	r28
    20d8:	1f 91       	pop	r17
    20da:	0f 91       	pop	r16
    20dc:	08 95       	ret

000020de <fputs>:
    20de:	ef 92       	push	r14
    20e0:	ff 92       	push	r15
    20e2:	0f 93       	push	r16
    20e4:	1f 93       	push	r17
    20e6:	cf 93       	push	r28
    20e8:	df 93       	push	r29
    20ea:	7c 01       	movw	r14, r24
    20ec:	8b 01       	movw	r16, r22
    20ee:	db 01       	movw	r26, r22
    20f0:	13 96       	adiw	r26, 0x03	; 3
    20f2:	8c 91       	ld	r24, X
    20f4:	81 fd       	sbrc	r24, 1
    20f6:	03 c0       	rjmp	.+6      	; 0x20fe <fputs+0x20>
    20f8:	cf ef       	ldi	r28, 0xFF	; 255
    20fa:	df ef       	ldi	r29, 0xFF	; 255
    20fc:	13 c0       	rjmp	.+38     	; 0x2124 <fputs+0x46>
    20fe:	c0 e0       	ldi	r28, 0x00	; 0
    2100:	d0 e0       	ldi	r29, 0x00	; 0
    2102:	0b c0       	rjmp	.+22     	; 0x211a <fputs+0x3c>
    2104:	d8 01       	movw	r26, r16
    2106:	18 96       	adiw	r26, 0x08	; 8
    2108:	ed 91       	ld	r30, X+
    210a:	fc 91       	ld	r31, X
    210c:	19 97       	sbiw	r26, 0x09	; 9
    210e:	b8 01       	movw	r22, r16
    2110:	09 95       	icall
    2112:	89 2b       	or	r24, r25
    2114:	11 f0       	breq	.+4      	; 0x211a <fputs+0x3c>
    2116:	cf ef       	ldi	r28, 0xFF	; 255
    2118:	df ef       	ldi	r29, 0xFF	; 255
    211a:	f7 01       	movw	r30, r14
    211c:	81 91       	ld	r24, Z+
    211e:	7f 01       	movw	r14, r30
    2120:	88 23       	and	r24, r24
    2122:	81 f7       	brne	.-32     	; 0x2104 <fputs+0x26>
    2124:	ce 01       	movw	r24, r28
    2126:	df 91       	pop	r29
    2128:	cf 91       	pop	r28
    212a:	1f 91       	pop	r17
    212c:	0f 91       	pop	r16
    212e:	ff 90       	pop	r15
    2130:	ef 90       	pop	r14
    2132:	08 95       	ret

00002134 <fscanf>:
    2134:	df 93       	push	r29
    2136:	cf 93       	push	r28
    2138:	cd b7       	in	r28, 0x3d	; 61
    213a:	de b7       	in	r29, 0x3e	; 62
    213c:	9e 01       	movw	r18, r28
    213e:	27 5f       	subi	r18, 0xF7	; 247
    2140:	3f 4f       	sbci	r19, 0xFF	; 255
    2142:	8d 81       	ldd	r24, Y+5	; 0x05
    2144:	9e 81       	ldd	r25, Y+6	; 0x06
    2146:	6f 81       	ldd	r22, Y+7	; 0x07
    2148:	78 85       	ldd	r23, Y+8	; 0x08
    214a:	a9 01       	movw	r20, r18
    214c:	0e 94 91 14 	call	0x2922	; 0x2922 <vfscanf>
    2150:	cf 91       	pop	r28
    2152:	df 91       	pop	r29
    2154:	08 95       	ret

00002156 <sprintf>:
    2156:	0f 93       	push	r16
    2158:	1f 93       	push	r17
    215a:	df 93       	push	r29
    215c:	cf 93       	push	r28
    215e:	cd b7       	in	r28, 0x3d	; 61
    2160:	de b7       	in	r29, 0x3e	; 62
    2162:	2e 97       	sbiw	r28, 0x0e	; 14
    2164:	0f b6       	in	r0, 0x3f	; 63
    2166:	f8 94       	cli
    2168:	de bf       	out	0x3e, r29	; 62
    216a:	0f be       	out	0x3f, r0	; 63
    216c:	cd bf       	out	0x3d, r28	; 61
    216e:	0d 89       	ldd	r16, Y+21	; 0x15
    2170:	1e 89       	ldd	r17, Y+22	; 0x16
    2172:	86 e0       	ldi	r24, 0x06	; 6
    2174:	8c 83       	std	Y+4, r24	; 0x04
    2176:	1a 83       	std	Y+2, r17	; 0x02
    2178:	09 83       	std	Y+1, r16	; 0x01
    217a:	8f ef       	ldi	r24, 0xFF	; 255
    217c:	9f e7       	ldi	r25, 0x7F	; 127
    217e:	9e 83       	std	Y+6, r25	; 0x06
    2180:	8d 83       	std	Y+5, r24	; 0x05
    2182:	9e 01       	movw	r18, r28
    2184:	27 5e       	subi	r18, 0xE7	; 231
    2186:	3f 4f       	sbci	r19, 0xFF	; 255
    2188:	ce 01       	movw	r24, r28
    218a:	01 96       	adiw	r24, 0x01	; 1
    218c:	6f 89       	ldd	r22, Y+23	; 0x17
    218e:	78 8d       	ldd	r23, Y+24	; 0x18
    2190:	a9 01       	movw	r20, r18
    2192:	0e 94 dc 10 	call	0x21b8	; 0x21b8 <vfprintf>
    2196:	2f 81       	ldd	r18, Y+7	; 0x07
    2198:	38 85       	ldd	r19, Y+8	; 0x08
    219a:	02 0f       	add	r16, r18
    219c:	13 1f       	adc	r17, r19
    219e:	f8 01       	movw	r30, r16
    21a0:	10 82       	st	Z, r1
    21a2:	2e 96       	adiw	r28, 0x0e	; 14
    21a4:	0f b6       	in	r0, 0x3f	; 63
    21a6:	f8 94       	cli
    21a8:	de bf       	out	0x3e, r29	; 62
    21aa:	0f be       	out	0x3f, r0	; 63
    21ac:	cd bf       	out	0x3d, r28	; 61
    21ae:	cf 91       	pop	r28
    21b0:	df 91       	pop	r29
    21b2:	1f 91       	pop	r17
    21b4:	0f 91       	pop	r16
    21b6:	08 95       	ret

000021b8 <vfprintf>:
    21b8:	2f 92       	push	r2
    21ba:	3f 92       	push	r3
    21bc:	4f 92       	push	r4
    21be:	5f 92       	push	r5
    21c0:	6f 92       	push	r6
    21c2:	7f 92       	push	r7
    21c4:	8f 92       	push	r8
    21c6:	9f 92       	push	r9
    21c8:	af 92       	push	r10
    21ca:	bf 92       	push	r11
    21cc:	cf 92       	push	r12
    21ce:	df 92       	push	r13
    21d0:	ef 92       	push	r14
    21d2:	ff 92       	push	r15
    21d4:	0f 93       	push	r16
    21d6:	1f 93       	push	r17
    21d8:	df 93       	push	r29
    21da:	cf 93       	push	r28
    21dc:	cd b7       	in	r28, 0x3d	; 61
    21de:	de b7       	in	r29, 0x3e	; 62
    21e0:	2b 97       	sbiw	r28, 0x0b	; 11
    21e2:	0f b6       	in	r0, 0x3f	; 63
    21e4:	f8 94       	cli
    21e6:	de bf       	out	0x3e, r29	; 62
    21e8:	0f be       	out	0x3f, r0	; 63
    21ea:	cd bf       	out	0x3d, r28	; 61
    21ec:	3c 01       	movw	r6, r24
    21ee:	2b 01       	movw	r4, r22
    21f0:	5a 01       	movw	r10, r20
    21f2:	fc 01       	movw	r30, r24
    21f4:	17 82       	std	Z+7, r1	; 0x07
    21f6:	16 82       	std	Z+6, r1	; 0x06
    21f8:	83 81       	ldd	r24, Z+3	; 0x03
    21fa:	81 fd       	sbrc	r24, 1
    21fc:	03 c0       	rjmp	.+6      	; 0x2204 <vfprintf+0x4c>
    21fe:	6f ef       	ldi	r22, 0xFF	; 255
    2200:	7f ef       	ldi	r23, 0xFF	; 255
    2202:	c6 c1       	rjmp	.+908    	; 0x2590 <vfprintf+0x3d8>
    2204:	9a e0       	ldi	r25, 0x0A	; 10
    2206:	89 2e       	mov	r8, r25
    2208:	1e 01       	movw	r2, r28
    220a:	08 94       	sec
    220c:	21 1c       	adc	r2, r1
    220e:	31 1c       	adc	r3, r1
    2210:	f3 01       	movw	r30, r6
    2212:	23 81       	ldd	r18, Z+3	; 0x03
    2214:	f2 01       	movw	r30, r4
    2216:	23 fd       	sbrc	r18, 3
    2218:	85 91       	lpm	r24, Z+
    221a:	23 ff       	sbrs	r18, 3
    221c:	81 91       	ld	r24, Z+
    221e:	2f 01       	movw	r4, r30
    2220:	88 23       	and	r24, r24
    2222:	09 f4       	brne	.+2      	; 0x2226 <vfprintf+0x6e>
    2224:	b2 c1       	rjmp	.+868    	; 0x258a <vfprintf+0x3d2>
    2226:	85 32       	cpi	r24, 0x25	; 37
    2228:	39 f4       	brne	.+14     	; 0x2238 <vfprintf+0x80>
    222a:	23 fd       	sbrc	r18, 3
    222c:	85 91       	lpm	r24, Z+
    222e:	23 ff       	sbrs	r18, 3
    2230:	81 91       	ld	r24, Z+
    2232:	2f 01       	movw	r4, r30
    2234:	85 32       	cpi	r24, 0x25	; 37
    2236:	29 f4       	brne	.+10     	; 0x2242 <vfprintf+0x8a>
    2238:	90 e0       	ldi	r25, 0x00	; 0
    223a:	b3 01       	movw	r22, r6
    223c:	0e 94 43 10 	call	0x2086	; 0x2086 <fputc>
    2240:	e7 cf       	rjmp	.-50     	; 0x2210 <vfprintf+0x58>
    2242:	98 2f       	mov	r25, r24
    2244:	ff 24       	eor	r15, r15
    2246:	ee 24       	eor	r14, r14
    2248:	99 24       	eor	r9, r9
    224a:	ff e1       	ldi	r31, 0x1F	; 31
    224c:	ff 15       	cp	r31, r15
    224e:	d0 f0       	brcs	.+52     	; 0x2284 <vfprintf+0xcc>
    2250:	9b 32       	cpi	r25, 0x2B	; 43
    2252:	69 f0       	breq	.+26     	; 0x226e <vfprintf+0xb6>
    2254:	9c 32       	cpi	r25, 0x2C	; 44
    2256:	28 f4       	brcc	.+10     	; 0x2262 <vfprintf+0xaa>
    2258:	90 32       	cpi	r25, 0x20	; 32
    225a:	59 f0       	breq	.+22     	; 0x2272 <vfprintf+0xba>
    225c:	93 32       	cpi	r25, 0x23	; 35
    225e:	91 f4       	brne	.+36     	; 0x2284 <vfprintf+0xcc>
    2260:	0e c0       	rjmp	.+28     	; 0x227e <vfprintf+0xc6>
    2262:	9d 32       	cpi	r25, 0x2D	; 45
    2264:	49 f0       	breq	.+18     	; 0x2278 <vfprintf+0xc0>
    2266:	90 33       	cpi	r25, 0x30	; 48
    2268:	69 f4       	brne	.+26     	; 0x2284 <vfprintf+0xcc>
    226a:	41 e0       	ldi	r20, 0x01	; 1
    226c:	24 c0       	rjmp	.+72     	; 0x22b6 <vfprintf+0xfe>
    226e:	52 e0       	ldi	r21, 0x02	; 2
    2270:	f5 2a       	or	r15, r21
    2272:	84 e0       	ldi	r24, 0x04	; 4
    2274:	f8 2a       	or	r15, r24
    2276:	28 c0       	rjmp	.+80     	; 0x22c8 <vfprintf+0x110>
    2278:	98 e0       	ldi	r25, 0x08	; 8
    227a:	f9 2a       	or	r15, r25
    227c:	25 c0       	rjmp	.+74     	; 0x22c8 <vfprintf+0x110>
    227e:	e0 e1       	ldi	r30, 0x10	; 16
    2280:	fe 2a       	or	r15, r30
    2282:	22 c0       	rjmp	.+68     	; 0x22c8 <vfprintf+0x110>
    2284:	f7 fc       	sbrc	r15, 7
    2286:	29 c0       	rjmp	.+82     	; 0x22da <vfprintf+0x122>
    2288:	89 2f       	mov	r24, r25
    228a:	80 53       	subi	r24, 0x30	; 48
    228c:	8a 30       	cpi	r24, 0x0A	; 10
    228e:	70 f4       	brcc	.+28     	; 0x22ac <vfprintf+0xf4>
    2290:	f6 fe       	sbrs	r15, 6
    2292:	05 c0       	rjmp	.+10     	; 0x229e <vfprintf+0xe6>
    2294:	98 9c       	mul	r9, r8
    2296:	90 2c       	mov	r9, r0
    2298:	11 24       	eor	r1, r1
    229a:	98 0e       	add	r9, r24
    229c:	15 c0       	rjmp	.+42     	; 0x22c8 <vfprintf+0x110>
    229e:	e8 9c       	mul	r14, r8
    22a0:	e0 2c       	mov	r14, r0
    22a2:	11 24       	eor	r1, r1
    22a4:	e8 0e       	add	r14, r24
    22a6:	f0 e2       	ldi	r31, 0x20	; 32
    22a8:	ff 2a       	or	r15, r31
    22aa:	0e c0       	rjmp	.+28     	; 0x22c8 <vfprintf+0x110>
    22ac:	9e 32       	cpi	r25, 0x2E	; 46
    22ae:	29 f4       	brne	.+10     	; 0x22ba <vfprintf+0x102>
    22b0:	f6 fc       	sbrc	r15, 6
    22b2:	6b c1       	rjmp	.+726    	; 0x258a <vfprintf+0x3d2>
    22b4:	40 e4       	ldi	r20, 0x40	; 64
    22b6:	f4 2a       	or	r15, r20
    22b8:	07 c0       	rjmp	.+14     	; 0x22c8 <vfprintf+0x110>
    22ba:	9c 36       	cpi	r25, 0x6C	; 108
    22bc:	19 f4       	brne	.+6      	; 0x22c4 <vfprintf+0x10c>
    22be:	50 e8       	ldi	r21, 0x80	; 128
    22c0:	f5 2a       	or	r15, r21
    22c2:	02 c0       	rjmp	.+4      	; 0x22c8 <vfprintf+0x110>
    22c4:	98 36       	cpi	r25, 0x68	; 104
    22c6:	49 f4       	brne	.+18     	; 0x22da <vfprintf+0x122>
    22c8:	f2 01       	movw	r30, r4
    22ca:	23 fd       	sbrc	r18, 3
    22cc:	95 91       	lpm	r25, Z+
    22ce:	23 ff       	sbrs	r18, 3
    22d0:	91 91       	ld	r25, Z+
    22d2:	2f 01       	movw	r4, r30
    22d4:	99 23       	and	r25, r25
    22d6:	09 f0       	breq	.+2      	; 0x22da <vfprintf+0x122>
    22d8:	b8 cf       	rjmp	.-144    	; 0x224a <vfprintf+0x92>
    22da:	89 2f       	mov	r24, r25
    22dc:	85 54       	subi	r24, 0x45	; 69
    22de:	83 30       	cpi	r24, 0x03	; 3
    22e0:	18 f0       	brcs	.+6      	; 0x22e8 <vfprintf+0x130>
    22e2:	80 52       	subi	r24, 0x20	; 32
    22e4:	83 30       	cpi	r24, 0x03	; 3
    22e6:	38 f4       	brcc	.+14     	; 0x22f6 <vfprintf+0x13e>
    22e8:	44 e0       	ldi	r20, 0x04	; 4
    22ea:	50 e0       	ldi	r21, 0x00	; 0
    22ec:	a4 0e       	add	r10, r20
    22ee:	b5 1e       	adc	r11, r21
    22f0:	5f e3       	ldi	r21, 0x3F	; 63
    22f2:	59 83       	std	Y+1, r21	; 0x01
    22f4:	0f c0       	rjmp	.+30     	; 0x2314 <vfprintf+0x15c>
    22f6:	93 36       	cpi	r25, 0x63	; 99
    22f8:	31 f0       	breq	.+12     	; 0x2306 <vfprintf+0x14e>
    22fa:	93 37       	cpi	r25, 0x73	; 115
    22fc:	79 f0       	breq	.+30     	; 0x231c <vfprintf+0x164>
    22fe:	93 35       	cpi	r25, 0x53	; 83
    2300:	09 f0       	breq	.+2      	; 0x2304 <vfprintf+0x14c>
    2302:	56 c0       	rjmp	.+172    	; 0x23b0 <vfprintf+0x1f8>
    2304:	20 c0       	rjmp	.+64     	; 0x2346 <vfprintf+0x18e>
    2306:	f5 01       	movw	r30, r10
    2308:	80 81       	ld	r24, Z
    230a:	89 83       	std	Y+1, r24	; 0x01
    230c:	42 e0       	ldi	r20, 0x02	; 2
    230e:	50 e0       	ldi	r21, 0x00	; 0
    2310:	a4 0e       	add	r10, r20
    2312:	b5 1e       	adc	r11, r21
    2314:	61 01       	movw	r12, r2
    2316:	01 e0       	ldi	r16, 0x01	; 1
    2318:	10 e0       	ldi	r17, 0x00	; 0
    231a:	12 c0       	rjmp	.+36     	; 0x2340 <vfprintf+0x188>
    231c:	f5 01       	movw	r30, r10
    231e:	c0 80       	ld	r12, Z
    2320:	d1 80       	ldd	r13, Z+1	; 0x01
    2322:	f6 fc       	sbrc	r15, 6
    2324:	03 c0       	rjmp	.+6      	; 0x232c <vfprintf+0x174>
    2326:	6f ef       	ldi	r22, 0xFF	; 255
    2328:	7f ef       	ldi	r23, 0xFF	; 255
    232a:	02 c0       	rjmp	.+4      	; 0x2330 <vfprintf+0x178>
    232c:	69 2d       	mov	r22, r9
    232e:	70 e0       	ldi	r23, 0x00	; 0
    2330:	42 e0       	ldi	r20, 0x02	; 2
    2332:	50 e0       	ldi	r21, 0x00	; 0
    2334:	a4 0e       	add	r10, r20
    2336:	b5 1e       	adc	r11, r21
    2338:	c6 01       	movw	r24, r12
    233a:	0e 94 d2 15 	call	0x2ba4	; 0x2ba4 <strnlen>
    233e:	8c 01       	movw	r16, r24
    2340:	5f e7       	ldi	r21, 0x7F	; 127
    2342:	f5 22       	and	r15, r21
    2344:	14 c0       	rjmp	.+40     	; 0x236e <vfprintf+0x1b6>
    2346:	f5 01       	movw	r30, r10
    2348:	c0 80       	ld	r12, Z
    234a:	d1 80       	ldd	r13, Z+1	; 0x01
    234c:	f6 fc       	sbrc	r15, 6
    234e:	03 c0       	rjmp	.+6      	; 0x2356 <vfprintf+0x19e>
    2350:	6f ef       	ldi	r22, 0xFF	; 255
    2352:	7f ef       	ldi	r23, 0xFF	; 255
    2354:	02 c0       	rjmp	.+4      	; 0x235a <vfprintf+0x1a2>
    2356:	69 2d       	mov	r22, r9
    2358:	70 e0       	ldi	r23, 0x00	; 0
    235a:	42 e0       	ldi	r20, 0x02	; 2
    235c:	50 e0       	ldi	r21, 0x00	; 0
    235e:	a4 0e       	add	r10, r20
    2360:	b5 1e       	adc	r11, r21
    2362:	c6 01       	movw	r24, r12
    2364:	0e 94 c7 15 	call	0x2b8e	; 0x2b8e <strnlen_P>
    2368:	8c 01       	movw	r16, r24
    236a:	50 e8       	ldi	r21, 0x80	; 128
    236c:	f5 2a       	or	r15, r21
    236e:	f3 fe       	sbrs	r15, 3
    2370:	07 c0       	rjmp	.+14     	; 0x2380 <vfprintf+0x1c8>
    2372:	1a c0       	rjmp	.+52     	; 0x23a8 <vfprintf+0x1f0>
    2374:	80 e2       	ldi	r24, 0x20	; 32
    2376:	90 e0       	ldi	r25, 0x00	; 0
    2378:	b3 01       	movw	r22, r6
    237a:	0e 94 43 10 	call	0x2086	; 0x2086 <fputc>
    237e:	ea 94       	dec	r14
    2380:	8e 2d       	mov	r24, r14
    2382:	90 e0       	ldi	r25, 0x00	; 0
    2384:	08 17       	cp	r16, r24
    2386:	19 07       	cpc	r17, r25
    2388:	a8 f3       	brcs	.-22     	; 0x2374 <vfprintf+0x1bc>
    238a:	0e c0       	rjmp	.+28     	; 0x23a8 <vfprintf+0x1f0>
    238c:	f6 01       	movw	r30, r12
    238e:	f7 fc       	sbrc	r15, 7
    2390:	85 91       	lpm	r24, Z+
    2392:	f7 fe       	sbrs	r15, 7
    2394:	81 91       	ld	r24, Z+
    2396:	6f 01       	movw	r12, r30
    2398:	90 e0       	ldi	r25, 0x00	; 0
    239a:	b3 01       	movw	r22, r6
    239c:	0e 94 43 10 	call	0x2086	; 0x2086 <fputc>
    23a0:	e1 10       	cpse	r14, r1
    23a2:	ea 94       	dec	r14
    23a4:	01 50       	subi	r16, 0x01	; 1
    23a6:	10 40       	sbci	r17, 0x00	; 0
    23a8:	01 15       	cp	r16, r1
    23aa:	11 05       	cpc	r17, r1
    23ac:	79 f7       	brne	.-34     	; 0x238c <vfprintf+0x1d4>
    23ae:	ea c0       	rjmp	.+468    	; 0x2584 <vfprintf+0x3cc>
    23b0:	94 36       	cpi	r25, 0x64	; 100
    23b2:	11 f0       	breq	.+4      	; 0x23b8 <vfprintf+0x200>
    23b4:	99 36       	cpi	r25, 0x69	; 105
    23b6:	69 f5       	brne	.+90     	; 0x2412 <vfprintf+0x25a>
    23b8:	f7 fe       	sbrs	r15, 7
    23ba:	08 c0       	rjmp	.+16     	; 0x23cc <vfprintf+0x214>
    23bc:	f5 01       	movw	r30, r10
    23be:	20 81       	ld	r18, Z
    23c0:	31 81       	ldd	r19, Z+1	; 0x01
    23c2:	42 81       	ldd	r20, Z+2	; 0x02
    23c4:	53 81       	ldd	r21, Z+3	; 0x03
    23c6:	84 e0       	ldi	r24, 0x04	; 4
    23c8:	90 e0       	ldi	r25, 0x00	; 0
    23ca:	0a c0       	rjmp	.+20     	; 0x23e0 <vfprintf+0x228>
    23cc:	f5 01       	movw	r30, r10
    23ce:	80 81       	ld	r24, Z
    23d0:	91 81       	ldd	r25, Z+1	; 0x01
    23d2:	9c 01       	movw	r18, r24
    23d4:	44 27       	eor	r20, r20
    23d6:	37 fd       	sbrc	r19, 7
    23d8:	40 95       	com	r20
    23da:	54 2f       	mov	r21, r20
    23dc:	82 e0       	ldi	r24, 0x02	; 2
    23de:	90 e0       	ldi	r25, 0x00	; 0
    23e0:	a8 0e       	add	r10, r24
    23e2:	b9 1e       	adc	r11, r25
    23e4:	9f e6       	ldi	r25, 0x6F	; 111
    23e6:	f9 22       	and	r15, r25
    23e8:	57 ff       	sbrs	r21, 7
    23ea:	09 c0       	rjmp	.+18     	; 0x23fe <vfprintf+0x246>
    23ec:	50 95       	com	r21
    23ee:	40 95       	com	r20
    23f0:	30 95       	com	r19
    23f2:	21 95       	neg	r18
    23f4:	3f 4f       	sbci	r19, 0xFF	; 255
    23f6:	4f 4f       	sbci	r20, 0xFF	; 255
    23f8:	5f 4f       	sbci	r21, 0xFF	; 255
    23fa:	e0 e8       	ldi	r30, 0x80	; 128
    23fc:	fe 2a       	or	r15, r30
    23fe:	ca 01       	movw	r24, r20
    2400:	b9 01       	movw	r22, r18
    2402:	a1 01       	movw	r20, r2
    2404:	2a e0       	ldi	r18, 0x0A	; 10
    2406:	30 e0       	ldi	r19, 0x00	; 0
    2408:	0e 94 39 16 	call	0x2c72	; 0x2c72 <__ultoa_invert>
    240c:	d8 2e       	mov	r13, r24
    240e:	d2 18       	sub	r13, r2
    2410:	40 c0       	rjmp	.+128    	; 0x2492 <vfprintf+0x2da>
    2412:	95 37       	cpi	r25, 0x75	; 117
    2414:	29 f4       	brne	.+10     	; 0x2420 <vfprintf+0x268>
    2416:	1f 2d       	mov	r17, r15
    2418:	1f 7e       	andi	r17, 0xEF	; 239
    241a:	2a e0       	ldi	r18, 0x0A	; 10
    241c:	30 e0       	ldi	r19, 0x00	; 0
    241e:	1d c0       	rjmp	.+58     	; 0x245a <vfprintf+0x2a2>
    2420:	1f 2d       	mov	r17, r15
    2422:	19 7f       	andi	r17, 0xF9	; 249
    2424:	9f 36       	cpi	r25, 0x6F	; 111
    2426:	61 f0       	breq	.+24     	; 0x2440 <vfprintf+0x288>
    2428:	90 37       	cpi	r25, 0x70	; 112
    242a:	20 f4       	brcc	.+8      	; 0x2434 <vfprintf+0x27c>
    242c:	98 35       	cpi	r25, 0x58	; 88
    242e:	09 f0       	breq	.+2      	; 0x2432 <vfprintf+0x27a>
    2430:	ac c0       	rjmp	.+344    	; 0x258a <vfprintf+0x3d2>
    2432:	0f c0       	rjmp	.+30     	; 0x2452 <vfprintf+0x29a>
    2434:	90 37       	cpi	r25, 0x70	; 112
    2436:	39 f0       	breq	.+14     	; 0x2446 <vfprintf+0x28e>
    2438:	98 37       	cpi	r25, 0x78	; 120
    243a:	09 f0       	breq	.+2      	; 0x243e <vfprintf+0x286>
    243c:	a6 c0       	rjmp	.+332    	; 0x258a <vfprintf+0x3d2>
    243e:	04 c0       	rjmp	.+8      	; 0x2448 <vfprintf+0x290>
    2440:	28 e0       	ldi	r18, 0x08	; 8
    2442:	30 e0       	ldi	r19, 0x00	; 0
    2444:	0a c0       	rjmp	.+20     	; 0x245a <vfprintf+0x2a2>
    2446:	10 61       	ori	r17, 0x10	; 16
    2448:	14 fd       	sbrc	r17, 4
    244a:	14 60       	ori	r17, 0x04	; 4
    244c:	20 e1       	ldi	r18, 0x10	; 16
    244e:	30 e0       	ldi	r19, 0x00	; 0
    2450:	04 c0       	rjmp	.+8      	; 0x245a <vfprintf+0x2a2>
    2452:	14 fd       	sbrc	r17, 4
    2454:	16 60       	ori	r17, 0x06	; 6
    2456:	20 e1       	ldi	r18, 0x10	; 16
    2458:	32 e0       	ldi	r19, 0x02	; 2
    245a:	17 ff       	sbrs	r17, 7
    245c:	08 c0       	rjmp	.+16     	; 0x246e <vfprintf+0x2b6>
    245e:	f5 01       	movw	r30, r10
    2460:	60 81       	ld	r22, Z
    2462:	71 81       	ldd	r23, Z+1	; 0x01
    2464:	82 81       	ldd	r24, Z+2	; 0x02
    2466:	93 81       	ldd	r25, Z+3	; 0x03
    2468:	44 e0       	ldi	r20, 0x04	; 4
    246a:	50 e0       	ldi	r21, 0x00	; 0
    246c:	08 c0       	rjmp	.+16     	; 0x247e <vfprintf+0x2c6>
    246e:	f5 01       	movw	r30, r10
    2470:	80 81       	ld	r24, Z
    2472:	91 81       	ldd	r25, Z+1	; 0x01
    2474:	bc 01       	movw	r22, r24
    2476:	80 e0       	ldi	r24, 0x00	; 0
    2478:	90 e0       	ldi	r25, 0x00	; 0
    247a:	42 e0       	ldi	r20, 0x02	; 2
    247c:	50 e0       	ldi	r21, 0x00	; 0
    247e:	a4 0e       	add	r10, r20
    2480:	b5 1e       	adc	r11, r21
    2482:	a1 01       	movw	r20, r2
    2484:	0e 94 39 16 	call	0x2c72	; 0x2c72 <__ultoa_invert>
    2488:	d8 2e       	mov	r13, r24
    248a:	d2 18       	sub	r13, r2
    248c:	8f e7       	ldi	r24, 0x7F	; 127
    248e:	f8 2e       	mov	r15, r24
    2490:	f1 22       	and	r15, r17
    2492:	f6 fe       	sbrs	r15, 6
    2494:	0b c0       	rjmp	.+22     	; 0x24ac <vfprintf+0x2f4>
    2496:	5e ef       	ldi	r21, 0xFE	; 254
    2498:	f5 22       	and	r15, r21
    249a:	d9 14       	cp	r13, r9
    249c:	38 f4       	brcc	.+14     	; 0x24ac <vfprintf+0x2f4>
    249e:	f4 fe       	sbrs	r15, 4
    24a0:	07 c0       	rjmp	.+14     	; 0x24b0 <vfprintf+0x2f8>
    24a2:	f2 fc       	sbrc	r15, 2
    24a4:	05 c0       	rjmp	.+10     	; 0x24b0 <vfprintf+0x2f8>
    24a6:	8f ee       	ldi	r24, 0xEF	; 239
    24a8:	f8 22       	and	r15, r24
    24aa:	02 c0       	rjmp	.+4      	; 0x24b0 <vfprintf+0x2f8>
    24ac:	1d 2d       	mov	r17, r13
    24ae:	01 c0       	rjmp	.+2      	; 0x24b2 <vfprintf+0x2fa>
    24b0:	19 2d       	mov	r17, r9
    24b2:	f4 fe       	sbrs	r15, 4
    24b4:	0d c0       	rjmp	.+26     	; 0x24d0 <vfprintf+0x318>
    24b6:	fe 01       	movw	r30, r28
    24b8:	ed 0d       	add	r30, r13
    24ba:	f1 1d       	adc	r31, r1
    24bc:	80 81       	ld	r24, Z
    24be:	80 33       	cpi	r24, 0x30	; 48
    24c0:	19 f4       	brne	.+6      	; 0x24c8 <vfprintf+0x310>
    24c2:	99 ee       	ldi	r25, 0xE9	; 233
    24c4:	f9 22       	and	r15, r25
    24c6:	08 c0       	rjmp	.+16     	; 0x24d8 <vfprintf+0x320>
    24c8:	1f 5f       	subi	r17, 0xFF	; 255
    24ca:	f2 fe       	sbrs	r15, 2
    24cc:	05 c0       	rjmp	.+10     	; 0x24d8 <vfprintf+0x320>
    24ce:	03 c0       	rjmp	.+6      	; 0x24d6 <vfprintf+0x31e>
    24d0:	8f 2d       	mov	r24, r15
    24d2:	86 78       	andi	r24, 0x86	; 134
    24d4:	09 f0       	breq	.+2      	; 0x24d8 <vfprintf+0x320>
    24d6:	1f 5f       	subi	r17, 0xFF	; 255
    24d8:	0f 2d       	mov	r16, r15
    24da:	f3 fc       	sbrc	r15, 3
    24dc:	14 c0       	rjmp	.+40     	; 0x2506 <vfprintf+0x34e>
    24de:	f0 fe       	sbrs	r15, 0
    24e0:	0f c0       	rjmp	.+30     	; 0x2500 <vfprintf+0x348>
    24e2:	1e 15       	cp	r17, r14
    24e4:	10 f0       	brcs	.+4      	; 0x24ea <vfprintf+0x332>
    24e6:	9d 2c       	mov	r9, r13
    24e8:	0b c0       	rjmp	.+22     	; 0x2500 <vfprintf+0x348>
    24ea:	9d 2c       	mov	r9, r13
    24ec:	9e 0c       	add	r9, r14
    24ee:	91 1a       	sub	r9, r17
    24f0:	1e 2d       	mov	r17, r14
    24f2:	06 c0       	rjmp	.+12     	; 0x2500 <vfprintf+0x348>
    24f4:	80 e2       	ldi	r24, 0x20	; 32
    24f6:	90 e0       	ldi	r25, 0x00	; 0
    24f8:	b3 01       	movw	r22, r6
    24fa:	0e 94 43 10 	call	0x2086	; 0x2086 <fputc>
    24fe:	1f 5f       	subi	r17, 0xFF	; 255
    2500:	1e 15       	cp	r17, r14
    2502:	c0 f3       	brcs	.-16     	; 0x24f4 <vfprintf+0x33c>
    2504:	04 c0       	rjmp	.+8      	; 0x250e <vfprintf+0x356>
    2506:	1e 15       	cp	r17, r14
    2508:	10 f4       	brcc	.+4      	; 0x250e <vfprintf+0x356>
    250a:	e1 1a       	sub	r14, r17
    250c:	01 c0       	rjmp	.+2      	; 0x2510 <vfprintf+0x358>
    250e:	ee 24       	eor	r14, r14
    2510:	04 ff       	sbrs	r16, 4
    2512:	0f c0       	rjmp	.+30     	; 0x2532 <vfprintf+0x37a>
    2514:	80 e3       	ldi	r24, 0x30	; 48
    2516:	90 e0       	ldi	r25, 0x00	; 0
    2518:	b3 01       	movw	r22, r6
    251a:	0e 94 43 10 	call	0x2086	; 0x2086 <fputc>
    251e:	02 ff       	sbrs	r16, 2
    2520:	1d c0       	rjmp	.+58     	; 0x255c <vfprintf+0x3a4>
    2522:	01 fd       	sbrc	r16, 1
    2524:	03 c0       	rjmp	.+6      	; 0x252c <vfprintf+0x374>
    2526:	88 e7       	ldi	r24, 0x78	; 120
    2528:	90 e0       	ldi	r25, 0x00	; 0
    252a:	0e c0       	rjmp	.+28     	; 0x2548 <vfprintf+0x390>
    252c:	88 e5       	ldi	r24, 0x58	; 88
    252e:	90 e0       	ldi	r25, 0x00	; 0
    2530:	0b c0       	rjmp	.+22     	; 0x2548 <vfprintf+0x390>
    2532:	80 2f       	mov	r24, r16
    2534:	86 78       	andi	r24, 0x86	; 134
    2536:	91 f0       	breq	.+36     	; 0x255c <vfprintf+0x3a4>
    2538:	01 ff       	sbrs	r16, 1
    253a:	02 c0       	rjmp	.+4      	; 0x2540 <vfprintf+0x388>
    253c:	8b e2       	ldi	r24, 0x2B	; 43
    253e:	01 c0       	rjmp	.+2      	; 0x2542 <vfprintf+0x38a>
    2540:	80 e2       	ldi	r24, 0x20	; 32
    2542:	f7 fc       	sbrc	r15, 7
    2544:	8d e2       	ldi	r24, 0x2D	; 45
    2546:	90 e0       	ldi	r25, 0x00	; 0
    2548:	b3 01       	movw	r22, r6
    254a:	0e 94 43 10 	call	0x2086	; 0x2086 <fputc>
    254e:	06 c0       	rjmp	.+12     	; 0x255c <vfprintf+0x3a4>
    2550:	80 e3       	ldi	r24, 0x30	; 48
    2552:	90 e0       	ldi	r25, 0x00	; 0
    2554:	b3 01       	movw	r22, r6
    2556:	0e 94 43 10 	call	0x2086	; 0x2086 <fputc>
    255a:	9a 94       	dec	r9
    255c:	d9 14       	cp	r13, r9
    255e:	c0 f3       	brcs	.-16     	; 0x2550 <vfprintf+0x398>
    2560:	da 94       	dec	r13
    2562:	f1 01       	movw	r30, r2
    2564:	ed 0d       	add	r30, r13
    2566:	f1 1d       	adc	r31, r1
    2568:	80 81       	ld	r24, Z
    256a:	90 e0       	ldi	r25, 0x00	; 0
    256c:	b3 01       	movw	r22, r6
    256e:	0e 94 43 10 	call	0x2086	; 0x2086 <fputc>
    2572:	dd 20       	and	r13, r13
    2574:	a9 f7       	brne	.-22     	; 0x2560 <vfprintf+0x3a8>
    2576:	06 c0       	rjmp	.+12     	; 0x2584 <vfprintf+0x3cc>
    2578:	80 e2       	ldi	r24, 0x20	; 32
    257a:	90 e0       	ldi	r25, 0x00	; 0
    257c:	b3 01       	movw	r22, r6
    257e:	0e 94 43 10 	call	0x2086	; 0x2086 <fputc>
    2582:	ea 94       	dec	r14
    2584:	ee 20       	and	r14, r14
    2586:	c1 f7       	brne	.-16     	; 0x2578 <vfprintf+0x3c0>
    2588:	43 ce       	rjmp	.-890    	; 0x2210 <vfprintf+0x58>
    258a:	f3 01       	movw	r30, r6
    258c:	66 81       	ldd	r22, Z+6	; 0x06
    258e:	77 81       	ldd	r23, Z+7	; 0x07
    2590:	cb 01       	movw	r24, r22
    2592:	2b 96       	adiw	r28, 0x0b	; 11
    2594:	0f b6       	in	r0, 0x3f	; 63
    2596:	f8 94       	cli
    2598:	de bf       	out	0x3e, r29	; 62
    259a:	0f be       	out	0x3f, r0	; 63
    259c:	cd bf       	out	0x3d, r28	; 61
    259e:	cf 91       	pop	r28
    25a0:	df 91       	pop	r29
    25a2:	1f 91       	pop	r17
    25a4:	0f 91       	pop	r16
    25a6:	ff 90       	pop	r15
    25a8:	ef 90       	pop	r14
    25aa:	df 90       	pop	r13
    25ac:	cf 90       	pop	r12
    25ae:	bf 90       	pop	r11
    25b0:	af 90       	pop	r10
    25b2:	9f 90       	pop	r9
    25b4:	8f 90       	pop	r8
    25b6:	7f 90       	pop	r7
    25b8:	6f 90       	pop	r6
    25ba:	5f 90       	pop	r5
    25bc:	4f 90       	pop	r4
    25be:	3f 90       	pop	r3
    25c0:	2f 90       	pop	r2
    25c2:	08 95       	ret

000025c4 <putval>:
    25c4:	fc 01       	movw	r30, r24
    25c6:	20 fd       	sbrc	r18, 0
    25c8:	08 c0       	rjmp	.+16     	; 0x25da <putval+0x16>
    25ca:	23 fd       	sbrc	r18, 3
    25cc:	05 c0       	rjmp	.+10     	; 0x25d8 <putval+0x14>
    25ce:	22 ff       	sbrs	r18, 2
    25d0:	02 c0       	rjmp	.+4      	; 0x25d6 <putval+0x12>
    25d2:	73 83       	std	Z+3, r23	; 0x03
    25d4:	62 83       	std	Z+2, r22	; 0x02
    25d6:	51 83       	std	Z+1, r21	; 0x01
    25d8:	40 83       	st	Z, r20
    25da:	08 95       	ret

000025dc <mulacc>:
    25dc:	ef 92       	push	r14
    25de:	ff 92       	push	r15
    25e0:	0f 93       	push	r16
    25e2:	1f 93       	push	r17
    25e4:	44 ff       	sbrs	r20, 4
    25e6:	02 c0       	rjmp	.+4      	; 0x25ec <mulacc+0x10>
    25e8:	33 e0       	ldi	r19, 0x03	; 3
    25ea:	11 c0       	rjmp	.+34     	; 0x260e <mulacc+0x32>
    25ec:	46 ff       	sbrs	r20, 6
    25ee:	02 c0       	rjmp	.+4      	; 0x25f4 <mulacc+0x18>
    25f0:	34 e0       	ldi	r19, 0x04	; 4
    25f2:	0d c0       	rjmp	.+26     	; 0x260e <mulacc+0x32>
    25f4:	db 01       	movw	r26, r22
    25f6:	fc 01       	movw	r30, r24
    25f8:	aa 0f       	add	r26, r26
    25fa:	bb 1f       	adc	r27, r27
    25fc:	ee 1f       	adc	r30, r30
    25fe:	ff 1f       	adc	r31, r31
    2600:	10 94       	com	r1
    2602:	d1 f7       	brne	.-12     	; 0x25f8 <mulacc+0x1c>
    2604:	6a 0f       	add	r22, r26
    2606:	7b 1f       	adc	r23, r27
    2608:	8e 1f       	adc	r24, r30
    260a:	9f 1f       	adc	r25, r31
    260c:	31 e0       	ldi	r19, 0x01	; 1
    260e:	66 0f       	add	r22, r22
    2610:	77 1f       	adc	r23, r23
    2612:	88 1f       	adc	r24, r24
    2614:	99 1f       	adc	r25, r25
    2616:	31 50       	subi	r19, 0x01	; 1
    2618:	d1 f7       	brne	.-12     	; 0x260e <mulacc+0x32>
    261a:	7b 01       	movw	r14, r22
    261c:	8c 01       	movw	r16, r24
    261e:	e2 0e       	add	r14, r18
    2620:	f1 1c       	adc	r15, r1
    2622:	01 1d       	adc	r16, r1
    2624:	11 1d       	adc	r17, r1
    2626:	a8 01       	movw	r20, r16
    2628:	97 01       	movw	r18, r14
    262a:	b7 01       	movw	r22, r14
    262c:	ca 01       	movw	r24, r20
    262e:	1f 91       	pop	r17
    2630:	0f 91       	pop	r16
    2632:	ff 90       	pop	r15
    2634:	ef 90       	pop	r14
    2636:	08 95       	ret

00002638 <skip_spaces>:
    2638:	0f 93       	push	r16
    263a:	1f 93       	push	r17
    263c:	cf 93       	push	r28
    263e:	df 93       	push	r29
    2640:	8c 01       	movw	r16, r24
    2642:	c8 01       	movw	r24, r16
    2644:	0e 94 dd 15 	call	0x2bba	; 0x2bba <fgetc>
    2648:	ec 01       	movw	r28, r24
    264a:	97 fd       	sbrc	r25, 7
    264c:	08 c0       	rjmp	.+16     	; 0x265e <skip_spaces+0x26>
    264e:	0e 94 b4 15 	call	0x2b68	; 0x2b68 <isspace>
    2652:	89 2b       	or	r24, r25
    2654:	b1 f7       	brne	.-20     	; 0x2642 <skip_spaces+0xa>
    2656:	ce 01       	movw	r24, r28
    2658:	b8 01       	movw	r22, r16
    265a:	0e 94 1f 16 	call	0x2c3e	; 0x2c3e <ungetc>
    265e:	ce 01       	movw	r24, r28
    2660:	df 91       	pop	r29
    2662:	cf 91       	pop	r28
    2664:	1f 91       	pop	r17
    2666:	0f 91       	pop	r16
    2668:	08 95       	ret

0000266a <conv_int>:
    266a:	af 92       	push	r10
    266c:	bf 92       	push	r11
    266e:	cf 92       	push	r12
    2670:	df 92       	push	r13
    2672:	ef 92       	push	r14
    2674:	ff 92       	push	r15
    2676:	0f 93       	push	r16
    2678:	1f 93       	push	r17
    267a:	cf 93       	push	r28
    267c:	df 93       	push	r29
    267e:	ec 01       	movw	r28, r24
    2680:	c6 2e       	mov	r12, r22
    2682:	5a 01       	movw	r10, r20
    2684:	12 2f       	mov	r17, r18
    2686:	0e 94 dd 15 	call	0x2bba	; 0x2bba <fgetc>
    268a:	ac 01       	movw	r20, r24
    268c:	8b 32       	cpi	r24, 0x2B	; 43
    268e:	19 f0       	breq	.+6      	; 0x2696 <conv_int+0x2c>
    2690:	8d 32       	cpi	r24, 0x2D	; 45
    2692:	51 f4       	brne	.+20     	; 0x26a8 <conv_int+0x3e>
    2694:	10 68       	ori	r17, 0x80	; 128
    2696:	ca 94       	dec	r12
    2698:	09 f4       	brne	.+2      	; 0x269c <conv_int+0x32>
    269a:	6d c0       	rjmp	.+218    	; 0x2776 <conv_int+0x10c>
    269c:	ce 01       	movw	r24, r28
    269e:	0e 94 dd 15 	call	0x2bba	; 0x2bba <fgetc>
    26a2:	ac 01       	movw	r20, r24
    26a4:	97 fd       	sbrc	r25, 7
    26a6:	67 c0       	rjmp	.+206    	; 0x2776 <conv_int+0x10c>
    26a8:	6d ef       	ldi	r22, 0xFD	; 253
    26aa:	d6 2e       	mov	r13, r22
    26ac:	d1 22       	and	r13, r17
    26ae:	8d 2d       	mov	r24, r13
    26b0:	80 73       	andi	r24, 0x30	; 48
    26b2:	01 f5       	brne	.+64     	; 0x26f4 <conv_int+0x8a>
    26b4:	40 33       	cpi	r20, 0x30	; 48
    26b6:	f1 f4       	brne	.+60     	; 0x26f4 <conv_int+0x8a>
    26b8:	ca 94       	dec	r12
    26ba:	09 f4       	brne	.+2      	; 0x26be <conv_int+0x54>
    26bc:	47 c0       	rjmp	.+142    	; 0x274c <conv_int+0xe2>
    26be:	ce 01       	movw	r24, r28
    26c0:	0e 94 dd 15 	call	0x2bba	; 0x2bba <fgetc>
    26c4:	ac 01       	movw	r20, r24
    26c6:	97 fd       	sbrc	r25, 7
    26c8:	41 c0       	rjmp	.+130    	; 0x274c <conv_int+0xe2>
    26ca:	82 e0       	ldi	r24, 0x02	; 2
    26cc:	d8 2a       	or	r13, r24
    26ce:	48 37       	cpi	r20, 0x78	; 120
    26d0:	11 f0       	breq	.+4      	; 0x26d6 <conv_int+0x6c>
    26d2:	48 35       	cpi	r20, 0x58	; 88
    26d4:	59 f4       	brne	.+22     	; 0x26ec <conv_int+0x82>
    26d6:	80 e4       	ldi	r24, 0x40	; 64
    26d8:	d8 2a       	or	r13, r24
    26da:	ca 94       	dec	r12
    26dc:	b9 f1       	breq	.+110    	; 0x274c <conv_int+0xe2>
    26de:	ce 01       	movw	r24, r28
    26e0:	0e 94 dd 15 	call	0x2bba	; 0x2bba <fgetc>
    26e4:	ac 01       	movw	r20, r24
    26e6:	99 23       	and	r25, r25
    26e8:	2c f4       	brge	.+10     	; 0x26f4 <conv_int+0x8a>
    26ea:	30 c0       	rjmp	.+96     	; 0x274c <conv_int+0xe2>
    26ec:	d6 fc       	sbrc	r13, 6
    26ee:	02 c0       	rjmp	.+4      	; 0x26f4 <conv_int+0x8a>
    26f0:	80 e1       	ldi	r24, 0x10	; 16
    26f2:	d8 2a       	or	r13, r24
    26f4:	ee 24       	eor	r14, r14
    26f6:	ff 24       	eor	r15, r15
    26f8:	87 01       	movw	r16, r14
    26fa:	24 2f       	mov	r18, r20
    26fc:	20 53       	subi	r18, 0x30	; 48
    26fe:	28 30       	cpi	r18, 0x08	; 8
    2700:	88 f0       	brcs	.+34     	; 0x2724 <conv_int+0xba>
    2702:	d4 fc       	sbrc	r13, 4
    2704:	09 c0       	rjmp	.+18     	; 0x2718 <conv_int+0xae>
    2706:	2a 30       	cpi	r18, 0x0A	; 10
    2708:	68 f0       	brcs	.+26     	; 0x2724 <conv_int+0xba>
    270a:	d6 fe       	sbrs	r13, 6
    270c:	05 c0       	rjmp	.+10     	; 0x2718 <conv_int+0xae>
    270e:	2f 7d       	andi	r18, 0xDF	; 223
    2710:	82 2f       	mov	r24, r18
    2712:	81 51       	subi	r24, 0x11	; 17
    2714:	86 30       	cpi	r24, 0x06	; 6
    2716:	28 f0       	brcs	.+10     	; 0x2722 <conv_int+0xb8>
    2718:	ca 01       	movw	r24, r20
    271a:	be 01       	movw	r22, r28
    271c:	0e 94 1f 16 	call	0x2c3e	; 0x2c3e <ungetc>
    2720:	12 c0       	rjmp	.+36     	; 0x2746 <conv_int+0xdc>
    2722:	27 50       	subi	r18, 0x07	; 7
    2724:	c8 01       	movw	r24, r16
    2726:	b7 01       	movw	r22, r14
    2728:	4d 2d       	mov	r20, r13
    272a:	0e 94 ee 12 	call	0x25dc	; 0x25dc <mulacc>
    272e:	7b 01       	movw	r14, r22
    2730:	8c 01       	movw	r16, r24
    2732:	82 e0       	ldi	r24, 0x02	; 2
    2734:	d8 2a       	or	r13, r24
    2736:	ca 94       	dec	r12
    2738:	61 f0       	breq	.+24     	; 0x2752 <conv_int+0xe8>
    273a:	ce 01       	movw	r24, r28
    273c:	0e 94 dd 15 	call	0x2bba	; 0x2bba <fgetc>
    2740:	ac 01       	movw	r20, r24
    2742:	97 ff       	sbrs	r25, 7
    2744:	da cf       	rjmp	.-76     	; 0x26fa <conv_int+0x90>
    2746:	d1 fc       	sbrc	r13, 1
    2748:	04 c0       	rjmp	.+8      	; 0x2752 <conv_int+0xe8>
    274a:	15 c0       	rjmp	.+42     	; 0x2776 <conv_int+0x10c>
    274c:	ee 24       	eor	r14, r14
    274e:	ff 24       	eor	r15, r15
    2750:	87 01       	movw	r16, r14
    2752:	d7 fe       	sbrs	r13, 7
    2754:	08 c0       	rjmp	.+16     	; 0x2766 <conv_int+0xfc>
    2756:	10 95       	com	r17
    2758:	00 95       	com	r16
    275a:	f0 94       	com	r15
    275c:	e0 94       	com	r14
    275e:	e1 1c       	adc	r14, r1
    2760:	f1 1c       	adc	r15, r1
    2762:	01 1d       	adc	r16, r1
    2764:	11 1d       	adc	r17, r1
    2766:	c5 01       	movw	r24, r10
    2768:	b8 01       	movw	r22, r16
    276a:	a7 01       	movw	r20, r14
    276c:	2d 2d       	mov	r18, r13
    276e:	0e 94 e2 12 	call	0x25c4	; 0x25c4 <putval>
    2772:	81 e0       	ldi	r24, 0x01	; 1
    2774:	01 c0       	rjmp	.+2      	; 0x2778 <conv_int+0x10e>
    2776:	80 e0       	ldi	r24, 0x00	; 0
    2778:	df 91       	pop	r29
    277a:	cf 91       	pop	r28
    277c:	1f 91       	pop	r17
    277e:	0f 91       	pop	r16
    2780:	ff 90       	pop	r15
    2782:	ef 90       	pop	r14
    2784:	df 90       	pop	r13
    2786:	cf 90       	pop	r12
    2788:	bf 90       	pop	r11
    278a:	af 90       	pop	r10
    278c:	08 95       	ret

0000278e <conv_brk>:
    278e:	6f 92       	push	r6
    2790:	7f 92       	push	r7
    2792:	8f 92       	push	r8
    2794:	9f 92       	push	r9
    2796:	af 92       	push	r10
    2798:	bf 92       	push	r11
    279a:	cf 92       	push	r12
    279c:	df 92       	push	r13
    279e:	ef 92       	push	r14
    27a0:	ff 92       	push	r15
    27a2:	0f 93       	push	r16
    27a4:	1f 93       	push	r17
    27a6:	df 93       	push	r29
    27a8:	cf 93       	push	r28
    27aa:	cd b7       	in	r28, 0x3d	; 61
    27ac:	de b7       	in	r29, 0x3e	; 62
    27ae:	a0 97       	sbiw	r28, 0x20	; 32
    27b0:	0f b6       	in	r0, 0x3f	; 63
    27b2:	f8 94       	cli
    27b4:	de bf       	out	0x3e, r29	; 62
    27b6:	0f be       	out	0x3f, r0	; 63
    27b8:	cd bf       	out	0x3d, r28	; 61
    27ba:	6c 01       	movw	r12, r24
    27bc:	a6 2e       	mov	r10, r22
    27be:	8a 01       	movw	r16, r20
    27c0:	79 01       	movw	r14, r18
    27c2:	fe 01       	movw	r30, r28
    27c4:	31 96       	adiw	r30, 0x01	; 1
    27c6:	80 e2       	ldi	r24, 0x20	; 32
    27c8:	df 01       	movw	r26, r30
    27ca:	1d 92       	st	X+, r1
    27cc:	8a 95       	dec	r24
    27ce:	e9 f7       	brne	.-6      	; 0x27ca <conv_brk+0x3c>
    27d0:	70 e0       	ldi	r23, 0x00	; 0
    27d2:	30 e0       	ldi	r19, 0x00	; 0
    27d4:	60 e0       	ldi	r22, 0x00	; 0
    27d6:	40 e0       	ldi	r20, 0x00	; 0
    27d8:	50 e0       	ldi	r21, 0x00	; 0
    27da:	4f 01       	movw	r8, r30
    27dc:	a1 e0       	ldi	r26, 0x01	; 1
    27de:	b0 e0       	ldi	r27, 0x00	; 0
    27e0:	f6 01       	movw	r30, r12
    27e2:	83 81       	ldd	r24, Z+3	; 0x03
    27e4:	f7 01       	movw	r30, r14
    27e6:	83 fd       	sbrc	r24, 3
    27e8:	25 91       	lpm	r18, Z+
    27ea:	83 ff       	sbrs	r24, 3
    27ec:	21 91       	ld	r18, Z+
    27ee:	7f 01       	movw	r14, r30
    27f0:	22 23       	and	r18, r18
    27f2:	09 f4       	brne	.+2      	; 0x27f6 <conv_brk+0x68>
    27f4:	7e c0       	rjmp	.+252    	; 0x28f2 <conv_brk+0x164>
    27f6:	2e 35       	cpi	r18, 0x5E	; 94
    27f8:	19 f4       	brne	.+6      	; 0x2800 <conv_brk+0x72>
    27fa:	41 15       	cp	r20, r1
    27fc:	51 05       	cpc	r21, r1
    27fe:	69 f1       	breq	.+90     	; 0x285a <conv_brk+0xcc>
    2800:	87 2f       	mov	r24, r23
    2802:	90 e0       	ldi	r25, 0x00	; 0
    2804:	84 17       	cp	r24, r20
    2806:	95 07       	cpc	r25, r21
    2808:	44 f4       	brge	.+16     	; 0x281a <conv_brk+0x8c>
    280a:	2d 35       	cpi	r18, 0x5D	; 93
    280c:	51 f1       	breq	.+84     	; 0x2862 <conv_brk+0xd4>
    280e:	2d 32       	cpi	r18, 0x2D	; 45
    2810:	21 f4       	brne	.+8      	; 0x281a <conv_brk+0x8c>
    2812:	33 23       	and	r19, r19
    2814:	29 f4       	brne	.+10     	; 0x2820 <conv_brk+0x92>
    2816:	31 e0       	ldi	r19, 0x01	; 1
    2818:	21 c0       	rjmp	.+66     	; 0x285c <conv_brk+0xce>
    281a:	33 23       	and	r19, r19
    281c:	09 f4       	brne	.+2      	; 0x2820 <conv_brk+0x92>
    281e:	62 2f       	mov	r22, r18
    2820:	32 2f       	mov	r19, r18
    2822:	83 2f       	mov	r24, r19
    2824:	86 95       	lsr	r24
    2826:	86 95       	lsr	r24
    2828:	86 95       	lsr	r24
    282a:	f4 01       	movw	r30, r8
    282c:	e8 0f       	add	r30, r24
    282e:	f1 1d       	adc	r31, r1
    2830:	83 2f       	mov	r24, r19
    2832:	87 70       	andi	r24, 0x07	; 7
    2834:	3d 01       	movw	r6, r26
    2836:	02 c0       	rjmp	.+4      	; 0x283c <conv_brk+0xae>
    2838:	66 0c       	add	r6, r6
    283a:	77 1c       	adc	r7, r7
    283c:	8a 95       	dec	r24
    283e:	e2 f7       	brpl	.-8      	; 0x2838 <conv_brk+0xaa>
    2840:	20 81       	ld	r18, Z
    2842:	26 29       	or	r18, r6
    2844:	20 83       	st	Z, r18
    2846:	36 17       	cp	r19, r22
    2848:	11 f4       	brne	.+4      	; 0x284e <conv_brk+0xc0>
    284a:	30 e0       	ldi	r19, 0x00	; 0
    284c:	07 c0       	rjmp	.+14     	; 0x285c <conv_brk+0xce>
    284e:	36 17       	cp	r19, r22
    2850:	10 f4       	brcc	.+4      	; 0x2856 <conv_brk+0xc8>
    2852:	3f 5f       	subi	r19, 0xFF	; 255
    2854:	e6 cf       	rjmp	.-52     	; 0x2822 <conv_brk+0x94>
    2856:	31 50       	subi	r19, 0x01	; 1
    2858:	e4 cf       	rjmp	.-56     	; 0x2822 <conv_brk+0x94>
    285a:	71 e0       	ldi	r23, 0x01	; 1
    285c:	4f 5f       	subi	r20, 0xFF	; 255
    285e:	5f 4f       	sbci	r21, 0xFF	; 255
    2860:	bf cf       	rjmp	.-130    	; 0x27e0 <conv_brk+0x52>
    2862:	33 23       	and	r19, r19
    2864:	19 f0       	breq	.+6      	; 0x286c <conv_brk+0xde>
    2866:	8e 81       	ldd	r24, Y+6	; 0x06
    2868:	80 62       	ori	r24, 0x20	; 32
    286a:	8e 83       	std	Y+6, r24	; 0x06
    286c:	77 23       	and	r23, r23
    286e:	59 f0       	breq	.+22     	; 0x2886 <conv_brk+0xf8>
    2870:	fe 01       	movw	r30, r28
    2872:	31 96       	adiw	r30, 0x01	; 1
    2874:	9e 01       	movw	r18, r28
    2876:	2f 5d       	subi	r18, 0xDF	; 223
    2878:	3f 4f       	sbci	r19, 0xFF	; 255
    287a:	80 81       	ld	r24, Z
    287c:	80 95       	com	r24
    287e:	81 93       	st	Z+, r24
    2880:	e2 17       	cp	r30, r18
    2882:	f3 07       	cpc	r31, r19
    2884:	d1 f7       	brne	.-12     	; 0x287a <conv_brk+0xec>
    2886:	bb 24       	eor	r11, r11
    2888:	b3 94       	inc	r11
    288a:	4e 01       	movw	r8, r28
    288c:	08 94       	sec
    288e:	81 1c       	adc	r8, r1
    2890:	91 1c       	adc	r9, r1
    2892:	c6 01       	movw	r24, r12
    2894:	0e 94 dd 15 	call	0x2bba	; 0x2bba <fgetc>
    2898:	ac 01       	movw	r20, r24
    289a:	97 fd       	sbrc	r25, 7
    289c:	22 c0       	rjmp	.+68     	; 0x28e2 <conv_brk+0x154>
    289e:	86 95       	lsr	r24
    28a0:	86 95       	lsr	r24
    28a2:	86 95       	lsr	r24
    28a4:	f4 01       	movw	r30, r8
    28a6:	e8 0f       	add	r30, r24
    28a8:	f1 1d       	adc	r31, r1
    28aa:	80 81       	ld	r24, Z
    28ac:	90 e0       	ldi	r25, 0x00	; 0
    28ae:	9a 01       	movw	r18, r20
    28b0:	27 70       	andi	r18, 0x07	; 7
    28b2:	30 70       	andi	r19, 0x00	; 0
    28b4:	02 c0       	rjmp	.+4      	; 0x28ba <conv_brk+0x12c>
    28b6:	95 95       	asr	r25
    28b8:	87 95       	ror	r24
    28ba:	2a 95       	dec	r18
    28bc:	e2 f7       	brpl	.-8      	; 0x28b6 <conv_brk+0x128>
    28be:	80 fd       	sbrc	r24, 0
    28c0:	05 c0       	rjmp	.+10     	; 0x28cc <conv_brk+0x13e>
    28c2:	ca 01       	movw	r24, r20
    28c4:	b6 01       	movw	r22, r12
    28c6:	0e 94 1f 16 	call	0x2c3e	; 0x2c3e <ungetc>
    28ca:	0b c0       	rjmp	.+22     	; 0x28e2 <conv_brk+0x154>
    28cc:	01 15       	cp	r16, r1
    28ce:	11 05       	cpc	r17, r1
    28d0:	19 f0       	breq	.+6      	; 0x28d8 <conv_brk+0x14a>
    28d2:	d8 01       	movw	r26, r16
    28d4:	4d 93       	st	X+, r20
    28d6:	8d 01       	movw	r16, r26
    28d8:	aa 94       	dec	r10
    28da:	bb 24       	eor	r11, r11
    28dc:	aa 20       	and	r10, r10
    28de:	c9 f6       	brne	.-78     	; 0x2892 <conv_brk+0x104>
    28e0:	02 c0       	rjmp	.+4      	; 0x28e6 <conv_brk+0x158>
    28e2:	bb 20       	and	r11, r11
    28e4:	31 f4       	brne	.+12     	; 0x28f2 <conv_brk+0x164>
    28e6:	01 15       	cp	r16, r1
    28e8:	11 05       	cpc	r17, r1
    28ea:	29 f0       	breq	.+10     	; 0x28f6 <conv_brk+0x168>
    28ec:	f8 01       	movw	r30, r16
    28ee:	10 82       	st	Z, r1
    28f0:	02 c0       	rjmp	.+4      	; 0x28f6 <conv_brk+0x168>
    28f2:	ee 24       	eor	r14, r14
    28f4:	ff 24       	eor	r15, r15
    28f6:	c7 01       	movw	r24, r14
    28f8:	a0 96       	adiw	r28, 0x20	; 32
    28fa:	0f b6       	in	r0, 0x3f	; 63
    28fc:	f8 94       	cli
    28fe:	de bf       	out	0x3e, r29	; 62
    2900:	0f be       	out	0x3f, r0	; 63
    2902:	cd bf       	out	0x3d, r28	; 61
    2904:	cf 91       	pop	r28
    2906:	df 91       	pop	r29
    2908:	1f 91       	pop	r17
    290a:	0f 91       	pop	r16
    290c:	ff 90       	pop	r15
    290e:	ef 90       	pop	r14
    2910:	df 90       	pop	r13
    2912:	cf 90       	pop	r12
    2914:	bf 90       	pop	r11
    2916:	af 90       	pop	r10
    2918:	9f 90       	pop	r9
    291a:	8f 90       	pop	r8
    291c:	7f 90       	pop	r7
    291e:	6f 90       	pop	r6
    2920:	08 95       	ret

00002922 <vfscanf>:
    2922:	6f 92       	push	r6
    2924:	7f 92       	push	r7
    2926:	8f 92       	push	r8
    2928:	9f 92       	push	r9
    292a:	af 92       	push	r10
    292c:	bf 92       	push	r11
    292e:	cf 92       	push	r12
    2930:	df 92       	push	r13
    2932:	ef 92       	push	r14
    2934:	ff 92       	push	r15
    2936:	0f 93       	push	r16
    2938:	1f 93       	push	r17
    293a:	cf 93       	push	r28
    293c:	df 93       	push	r29
    293e:	5c 01       	movw	r10, r24
    2940:	6b 01       	movw	r12, r22
    2942:	3a 01       	movw	r6, r20
    2944:	fc 01       	movw	r30, r24
    2946:	17 82       	std	Z+7, r1	; 0x07
    2948:	16 82       	std	Z+6, r1	; 0x06
    294a:	88 24       	eor	r8, r8
    294c:	ea c0       	rjmp	.+468    	; 0x2b22 <vfscanf+0x200>
    294e:	81 2f       	mov	r24, r17
    2950:	90 e0       	ldi	r25, 0x00	; 0
    2952:	0e 94 b4 15 	call	0x2b68	; 0x2b68 <isspace>
    2956:	89 2b       	or	r24, r25
    2958:	21 f0       	breq	.+8      	; 0x2962 <vfscanf+0x40>
    295a:	c5 01       	movw	r24, r10
    295c:	0e 94 1c 13 	call	0x2638	; 0x2638 <skip_spaces>
    2960:	e0 c0       	rjmp	.+448    	; 0x2b22 <vfscanf+0x200>
    2962:	15 32       	cpi	r17, 0x25	; 37
    2964:	49 f4       	brne	.+18     	; 0x2978 <vfscanf+0x56>
    2966:	f6 01       	movw	r30, r12
    2968:	f3 fc       	sbrc	r15, 3
    296a:	65 91       	lpm	r22, Z+
    296c:	f3 fe       	sbrs	r15, 3
    296e:	61 91       	ld	r22, Z+
    2970:	6f 01       	movw	r12, r30
    2972:	65 32       	cpi	r22, 0x25	; 37
    2974:	69 f4       	brne	.+26     	; 0x2990 <vfscanf+0x6e>
    2976:	15 e2       	ldi	r17, 0x25	; 37
    2978:	c5 01       	movw	r24, r10
    297a:	0e 94 dd 15 	call	0x2bba	; 0x2bba <fgetc>
    297e:	97 fd       	sbrc	r25, 7
    2980:	dc c0       	rjmp	.+440    	; 0x2b3a <vfscanf+0x218>
    2982:	18 17       	cp	r17, r24
    2984:	09 f4       	brne	.+2      	; 0x2988 <vfscanf+0x66>
    2986:	cd c0       	rjmp	.+410    	; 0x2b22 <vfscanf+0x200>
    2988:	b5 01       	movw	r22, r10
    298a:	0e 94 1f 16 	call	0x2c3e	; 0x2c3e <ungetc>
    298e:	da c0       	rjmp	.+436    	; 0x2b44 <vfscanf+0x222>
    2990:	6a 32       	cpi	r22, 0x2A	; 42
    2992:	19 f0       	breq	.+6      	; 0x299a <vfscanf+0x78>
    2994:	16 2f       	mov	r17, r22
    2996:	00 e0       	ldi	r16, 0x00	; 0
    2998:	06 c0       	rjmp	.+12     	; 0x29a6 <vfscanf+0x84>
    299a:	f3 fc       	sbrc	r15, 3
    299c:	15 91       	lpm	r17, Z+
    299e:	f3 fe       	sbrs	r15, 3
    29a0:	11 91       	ld	r17, Z+
    29a2:	6f 01       	movw	r12, r30
    29a4:	01 e0       	ldi	r16, 0x01	; 1
    29a6:	99 24       	eor	r9, r9
    29a8:	0f c0       	rjmp	.+30     	; 0x29c8 <vfscanf+0xa6>
    29aa:	02 60       	ori	r16, 0x02	; 2
    29ac:	69 2d       	mov	r22, r9
    29ae:	70 e0       	ldi	r23, 0x00	; 0
    29b0:	80 e0       	ldi	r24, 0x00	; 0
    29b2:	90 e0       	ldi	r25, 0x00	; 0
    29b4:	40 e2       	ldi	r20, 0x20	; 32
    29b6:	0e 94 ee 12 	call	0x25dc	; 0x25dc <mulacc>
    29ba:	96 2e       	mov	r9, r22
    29bc:	f6 01       	movw	r30, r12
    29be:	f3 fc       	sbrc	r15, 3
    29c0:	15 91       	lpm	r17, Z+
    29c2:	f3 fe       	sbrs	r15, 3
    29c4:	11 91       	ld	r17, Z+
    29c6:	6f 01       	movw	r12, r30
    29c8:	21 2f       	mov	r18, r17
    29ca:	20 53       	subi	r18, 0x30	; 48
    29cc:	2a 30       	cpi	r18, 0x0A	; 10
    29ce:	68 f3       	brcs	.-38     	; 0x29aa <vfscanf+0x88>
    29d0:	01 fd       	sbrc	r16, 1
    29d2:	03 c0       	rjmp	.+6      	; 0x29da <vfscanf+0xb8>
    29d4:	99 24       	eor	r9, r9
    29d6:	9a 94       	dec	r9
    29d8:	03 c0       	rjmp	.+6      	; 0x29e0 <vfscanf+0xbe>
    29da:	99 20       	and	r9, r9
    29dc:	09 f4       	brne	.+2      	; 0x29e0 <vfscanf+0xbe>
    29de:	b2 c0       	rjmp	.+356    	; 0x2b44 <vfscanf+0x222>
    29e0:	18 36       	cpi	r17, 0x68	; 104
    29e2:	21 f0       	breq	.+8      	; 0x29ec <vfscanf+0xca>
    29e4:	1c 36       	cpi	r17, 0x6C	; 108
    29e6:	99 f4       	brne	.+38     	; 0x2a0e <vfscanf+0xec>
    29e8:	f6 01       	movw	r30, r12
    29ea:	0b c0       	rjmp	.+22     	; 0x2a02 <vfscanf+0xe0>
    29ec:	f6 01       	movw	r30, r12
    29ee:	f3 fc       	sbrc	r15, 3
    29f0:	65 91       	lpm	r22, Z+
    29f2:	f3 fe       	sbrs	r15, 3
    29f4:	61 91       	ld	r22, Z+
    29f6:	68 36       	cpi	r22, 0x68	; 104
    29f8:	19 f0       	breq	.+6      	; 0x2a00 <vfscanf+0xde>
    29fa:	6f 01       	movw	r12, r30
    29fc:	16 2f       	mov	r17, r22
    29fe:	07 c0       	rjmp	.+14     	; 0x2a0e <vfscanf+0xec>
    2a00:	08 60       	ori	r16, 0x08	; 8
    2a02:	04 60       	ori	r16, 0x04	; 4
    2a04:	f3 fc       	sbrc	r15, 3
    2a06:	15 91       	lpm	r17, Z+
    2a08:	f3 fe       	sbrs	r15, 3
    2a0a:	11 91       	ld	r17, Z+
    2a0c:	6f 01       	movw	r12, r30
    2a0e:	11 23       	and	r17, r17
    2a10:	09 f4       	brne	.+2      	; 0x2a14 <vfscanf+0xf2>
    2a12:	98 c0       	rjmp	.+304    	; 0x2b44 <vfscanf+0x222>
    2a14:	80 ee       	ldi	r24, 0xE0	; 224
    2a16:	90 e0       	ldi	r25, 0x00	; 0
    2a18:	61 2f       	mov	r22, r17
    2a1a:	70 e0       	ldi	r23, 0x00	; 0
    2a1c:	0e 94 bc 15 	call	0x2b78	; 0x2b78 <strchr_P>
    2a20:	89 2b       	or	r24, r25
    2a22:	09 f4       	brne	.+2      	; 0x2a26 <vfscanf+0x104>
    2a24:	8f c0       	rjmp	.+286    	; 0x2b44 <vfscanf+0x222>
    2a26:	80 2f       	mov	r24, r16
    2a28:	00 ff       	sbrs	r16, 0
    2a2a:	03 c0       	rjmp	.+6      	; 0x2a32 <vfscanf+0x110>
    2a2c:	ee 24       	eor	r14, r14
    2a2e:	ff 24       	eor	r15, r15
    2a30:	07 c0       	rjmp	.+14     	; 0x2a40 <vfscanf+0x11e>
    2a32:	f3 01       	movw	r30, r6
    2a34:	e0 80       	ld	r14, Z
    2a36:	f1 80       	ldd	r15, Z+1	; 0x01
    2a38:	22 e0       	ldi	r18, 0x02	; 2
    2a3a:	30 e0       	ldi	r19, 0x00	; 0
    2a3c:	62 0e       	add	r6, r18
    2a3e:	73 1e       	adc	r7, r19
    2a40:	1e 36       	cpi	r17, 0x6E	; 110
    2a42:	51 f4       	brne	.+20     	; 0x2a58 <vfscanf+0x136>
    2a44:	f5 01       	movw	r30, r10
    2a46:	46 81       	ldd	r20, Z+6	; 0x06
    2a48:	57 81       	ldd	r21, Z+7	; 0x07
    2a4a:	60 e0       	ldi	r22, 0x00	; 0
    2a4c:	70 e0       	ldi	r23, 0x00	; 0
    2a4e:	c7 01       	movw	r24, r14
    2a50:	20 2f       	mov	r18, r16
    2a52:	0e 94 e2 12 	call	0x25c4	; 0x25c4 <putval>
    2a56:	65 c0       	rjmp	.+202    	; 0x2b22 <vfscanf+0x200>
    2a58:	13 36       	cpi	r17, 0x63	; 99
    2a5a:	91 f4       	brne	.+36     	; 0x2a80 <vfscanf+0x15e>
    2a5c:	81 fd       	sbrc	r24, 1
    2a5e:	02 c0       	rjmp	.+4      	; 0x2a64 <vfscanf+0x142>
    2a60:	99 24       	eor	r9, r9
    2a62:	93 94       	inc	r9
    2a64:	c5 01       	movw	r24, r10
    2a66:	0e 94 dd 15 	call	0x2bba	; 0x2bba <fgetc>
    2a6a:	97 fd       	sbrc	r25, 7
    2a6c:	66 c0       	rjmp	.+204    	; 0x2b3a <vfscanf+0x218>
    2a6e:	e1 14       	cp	r14, r1
    2a70:	f1 04       	cpc	r15, r1
    2a72:	19 f0       	breq	.+6      	; 0x2a7a <vfscanf+0x158>
    2a74:	f7 01       	movw	r30, r14
    2a76:	81 93       	st	Z+, r24
    2a78:	7f 01       	movw	r14, r30
    2a7a:	9a 94       	dec	r9
    2a7c:	99 f7       	brne	.-26     	; 0x2a64 <vfscanf+0x142>
    2a7e:	4f c0       	rjmp	.+158    	; 0x2b1e <vfscanf+0x1fc>
    2a80:	1b 35       	cpi	r17, 0x5B	; 91
    2a82:	59 f4       	brne	.+22     	; 0x2a9a <vfscanf+0x178>
    2a84:	c5 01       	movw	r24, r10
    2a86:	69 2d       	mov	r22, r9
    2a88:	a7 01       	movw	r20, r14
    2a8a:	96 01       	movw	r18, r12
    2a8c:	0e 94 c7 13 	call	0x278e	; 0x278e <conv_brk>
    2a90:	6c 01       	movw	r12, r24
    2a92:	00 97       	sbiw	r24, 0x00	; 0
    2a94:	09 f0       	breq	.+2      	; 0x2a98 <vfscanf+0x176>
    2a96:	43 c0       	rjmp	.+134    	; 0x2b1e <vfscanf+0x1fc>
    2a98:	3d c0       	rjmp	.+122    	; 0x2b14 <vfscanf+0x1f2>
    2a9a:	c5 01       	movw	r24, r10
    2a9c:	0e 94 1c 13 	call	0x2638	; 0x2638 <skip_spaces>
    2aa0:	97 fd       	sbrc	r25, 7
    2aa2:	4b c0       	rjmp	.+150    	; 0x2b3a <vfscanf+0x218>
    2aa4:	1f 36       	cpi	r17, 0x6F	; 111
    2aa6:	59 f1       	breq	.+86     	; 0x2afe <vfscanf+0x1dc>
    2aa8:	10 37       	cpi	r17, 0x70	; 112
    2aaa:	28 f4       	brcc	.+10     	; 0x2ab6 <vfscanf+0x194>
    2aac:	14 36       	cpi	r17, 0x64	; 100
    2aae:	29 f1       	breq	.+74     	; 0x2afa <vfscanf+0x1d8>
    2ab0:	19 36       	cpi	r17, 0x69	; 105
    2ab2:	39 f5       	brne	.+78     	; 0x2b02 <vfscanf+0x1e0>
    2ab4:	27 c0       	rjmp	.+78     	; 0x2b04 <vfscanf+0x1e2>
    2ab6:	13 37       	cpi	r17, 0x73	; 115
    2ab8:	19 f0       	breq	.+6      	; 0x2ac0 <vfscanf+0x19e>
    2aba:	15 37       	cpi	r17, 0x75	; 117
    2abc:	11 f5       	brne	.+68     	; 0x2b02 <vfscanf+0x1e0>
    2abe:	1d c0       	rjmp	.+58     	; 0x2afa <vfscanf+0x1d8>
    2ac0:	c5 01       	movw	r24, r10
    2ac2:	0e 94 dd 15 	call	0x2bba	; 0x2bba <fgetc>
    2ac6:	ec 01       	movw	r28, r24
    2ac8:	97 fd       	sbrc	r25, 7
    2aca:	11 c0       	rjmp	.+34     	; 0x2aee <vfscanf+0x1cc>
    2acc:	0e 94 b4 15 	call	0x2b68	; 0x2b68 <isspace>
    2ad0:	89 2b       	or	r24, r25
    2ad2:	29 f0       	breq	.+10     	; 0x2ade <vfscanf+0x1bc>
    2ad4:	ce 01       	movw	r24, r28
    2ad6:	b5 01       	movw	r22, r10
    2ad8:	0e 94 1f 16 	call	0x2c3e	; 0x2c3e <ungetc>
    2adc:	08 c0       	rjmp	.+16     	; 0x2aee <vfscanf+0x1cc>
    2ade:	e1 14       	cp	r14, r1
    2ae0:	f1 04       	cpc	r15, r1
    2ae2:	19 f0       	breq	.+6      	; 0x2aea <vfscanf+0x1c8>
    2ae4:	f7 01       	movw	r30, r14
    2ae6:	c1 93       	st	Z+, r28
    2ae8:	7f 01       	movw	r14, r30
    2aea:	9a 94       	dec	r9
    2aec:	49 f7       	brne	.-46     	; 0x2ac0 <vfscanf+0x19e>
    2aee:	e1 14       	cp	r14, r1
    2af0:	f1 04       	cpc	r15, r1
    2af2:	a9 f0       	breq	.+42     	; 0x2b1e <vfscanf+0x1fc>
    2af4:	f7 01       	movw	r30, r14
    2af6:	10 82       	st	Z, r1
    2af8:	12 c0       	rjmp	.+36     	; 0x2b1e <vfscanf+0x1fc>
    2afa:	00 62       	ori	r16, 0x20	; 32
    2afc:	03 c0       	rjmp	.+6      	; 0x2b04 <vfscanf+0x1e2>
    2afe:	00 61       	ori	r16, 0x10	; 16
    2b00:	01 c0       	rjmp	.+2      	; 0x2b04 <vfscanf+0x1e2>
    2b02:	00 64       	ori	r16, 0x40	; 64
    2b04:	c5 01       	movw	r24, r10
    2b06:	69 2d       	mov	r22, r9
    2b08:	a7 01       	movw	r20, r14
    2b0a:	20 2f       	mov	r18, r16
    2b0c:	0e 94 35 13 	call	0x266a	; 0x266a <conv_int>
    2b10:	88 23       	and	r24, r24
    2b12:	29 f4       	brne	.+10     	; 0x2b1e <vfscanf+0x1fc>
    2b14:	f5 01       	movw	r30, r10
    2b16:	83 81       	ldd	r24, Z+3	; 0x03
    2b18:	80 73       	andi	r24, 0x30	; 48
    2b1a:	79 f4       	brne	.+30     	; 0x2b3a <vfscanf+0x218>
    2b1c:	13 c0       	rjmp	.+38     	; 0x2b44 <vfscanf+0x222>
    2b1e:	00 ff       	sbrs	r16, 0
    2b20:	83 94       	inc	r8
    2b22:	f5 01       	movw	r30, r10
    2b24:	f3 80       	ldd	r15, Z+3	; 0x03
    2b26:	f6 01       	movw	r30, r12
    2b28:	f3 fc       	sbrc	r15, 3
    2b2a:	15 91       	lpm	r17, Z+
    2b2c:	f3 fe       	sbrs	r15, 3
    2b2e:	11 91       	ld	r17, Z+
    2b30:	6f 01       	movw	r12, r30
    2b32:	11 23       	and	r17, r17
    2b34:	09 f0       	breq	.+2      	; 0x2b38 <vfscanf+0x216>
    2b36:	0b cf       	rjmp	.-490    	; 0x294e <vfscanf+0x2c>
    2b38:	05 c0       	rjmp	.+10     	; 0x2b44 <vfscanf+0x222>
    2b3a:	88 20       	and	r8, r8
    2b3c:	19 f4       	brne	.+6      	; 0x2b44 <vfscanf+0x222>
    2b3e:	2f ef       	ldi	r18, 0xFF	; 255
    2b40:	3f ef       	ldi	r19, 0xFF	; 255
    2b42:	02 c0       	rjmp	.+4      	; 0x2b48 <vfscanf+0x226>
    2b44:	28 2d       	mov	r18, r8
    2b46:	30 e0       	ldi	r19, 0x00	; 0
    2b48:	c9 01       	movw	r24, r18
    2b4a:	df 91       	pop	r29
    2b4c:	cf 91       	pop	r28
    2b4e:	1f 91       	pop	r17
    2b50:	0f 91       	pop	r16
    2b52:	ff 90       	pop	r15
    2b54:	ef 90       	pop	r14
    2b56:	df 90       	pop	r13
    2b58:	cf 90       	pop	r12
    2b5a:	bf 90       	pop	r11
    2b5c:	af 90       	pop	r10
    2b5e:	9f 90       	pop	r9
    2b60:	8f 90       	pop	r8
    2b62:	7f 90       	pop	r7
    2b64:	6f 90       	pop	r6
    2b66:	08 95       	ret

00002b68 <isspace>:
    2b68:	91 11       	cpse	r25, r1
    2b6a:	e1 c0       	rjmp	.+450    	; 0x2d2e <__ctype_isfalse>
    2b6c:	80 32       	cpi	r24, 0x20	; 32
    2b6e:	19 f0       	breq	.+6      	; 0x2b76 <isspace+0xe>
    2b70:	89 50       	subi	r24, 0x09	; 9
    2b72:	85 50       	subi	r24, 0x05	; 5
    2b74:	d0 f7       	brcc	.-12     	; 0x2b6a <isspace+0x2>
    2b76:	08 95       	ret

00002b78 <strchr_P>:
    2b78:	fc 01       	movw	r30, r24
    2b7a:	05 90       	lpm	r0, Z+
    2b7c:	06 16       	cp	r0, r22
    2b7e:	21 f0       	breq	.+8      	; 0x2b88 <strchr_P+0x10>
    2b80:	00 20       	and	r0, r0
    2b82:	d9 f7       	brne	.-10     	; 0x2b7a <strchr_P+0x2>
    2b84:	c0 01       	movw	r24, r0
    2b86:	08 95       	ret
    2b88:	31 97       	sbiw	r30, 0x01	; 1
    2b8a:	cf 01       	movw	r24, r30
    2b8c:	08 95       	ret

00002b8e <strnlen_P>:
    2b8e:	fc 01       	movw	r30, r24
    2b90:	05 90       	lpm	r0, Z+
    2b92:	61 50       	subi	r22, 0x01	; 1
    2b94:	70 40       	sbci	r23, 0x00	; 0
    2b96:	01 10       	cpse	r0, r1
    2b98:	d8 f7       	brcc	.-10     	; 0x2b90 <strnlen_P+0x2>
    2b9a:	80 95       	com	r24
    2b9c:	90 95       	com	r25
    2b9e:	8e 0f       	add	r24, r30
    2ba0:	9f 1f       	adc	r25, r31
    2ba2:	08 95       	ret

00002ba4 <strnlen>:
    2ba4:	fc 01       	movw	r30, r24
    2ba6:	61 50       	subi	r22, 0x01	; 1
    2ba8:	70 40       	sbci	r23, 0x00	; 0
    2baa:	01 90       	ld	r0, Z+
    2bac:	01 10       	cpse	r0, r1
    2bae:	d8 f7       	brcc	.-10     	; 0x2ba6 <strnlen+0x2>
    2bb0:	80 95       	com	r24
    2bb2:	90 95       	com	r25
    2bb4:	8e 0f       	add	r24, r30
    2bb6:	9f 1f       	adc	r25, r31
    2bb8:	08 95       	ret

00002bba <fgetc>:
    2bba:	cf 93       	push	r28
    2bbc:	df 93       	push	r29
    2bbe:	ec 01       	movw	r28, r24
    2bc0:	4b 81       	ldd	r20, Y+3	; 0x03
    2bc2:	40 ff       	sbrs	r20, 0
    2bc4:	1a c0       	rjmp	.+52     	; 0x2bfa <fgetc+0x40>
    2bc6:	46 ff       	sbrs	r20, 6
    2bc8:	0a c0       	rjmp	.+20     	; 0x2bde <fgetc+0x24>
    2bca:	4f 7b       	andi	r20, 0xBF	; 191
    2bcc:	4b 83       	std	Y+3, r20	; 0x03
    2bce:	8e 81       	ldd	r24, Y+6	; 0x06
    2bd0:	9f 81       	ldd	r25, Y+7	; 0x07
    2bd2:	01 96       	adiw	r24, 0x01	; 1
    2bd4:	9f 83       	std	Y+7, r25	; 0x07
    2bd6:	8e 83       	std	Y+6, r24	; 0x06
    2bd8:	8a 81       	ldd	r24, Y+2	; 0x02
    2bda:	28 2f       	mov	r18, r24
    2bdc:	2b c0       	rjmp	.+86     	; 0x2c34 <fgetc+0x7a>
    2bde:	42 ff       	sbrs	r20, 2
    2be0:	13 c0       	rjmp	.+38     	; 0x2c08 <fgetc+0x4e>
    2be2:	e8 81       	ld	r30, Y
    2be4:	f9 81       	ldd	r31, Y+1	; 0x01
    2be6:	80 81       	ld	r24, Z
    2be8:	28 2f       	mov	r18, r24
    2bea:	33 27       	eor	r19, r19
    2bec:	27 fd       	sbrc	r18, 7
    2bee:	30 95       	com	r19
    2bf0:	21 15       	cp	r18, r1
    2bf2:	31 05       	cpc	r19, r1
    2bf4:	29 f4       	brne	.+10     	; 0x2c00 <fgetc+0x46>
    2bf6:	40 62       	ori	r20, 0x20	; 32
    2bf8:	4b 83       	std	Y+3, r20	; 0x03
    2bfa:	2f ef       	ldi	r18, 0xFF	; 255
    2bfc:	3f ef       	ldi	r19, 0xFF	; 255
    2bfe:	1b c0       	rjmp	.+54     	; 0x2c36 <fgetc+0x7c>
    2c00:	31 96       	adiw	r30, 0x01	; 1
    2c02:	f9 83       	std	Y+1, r31	; 0x01
    2c04:	e8 83       	st	Y, r30
    2c06:	11 c0       	rjmp	.+34     	; 0x2c2a <fgetc+0x70>
    2c08:	ea 85       	ldd	r30, Y+10	; 0x0a
    2c0a:	fb 85       	ldd	r31, Y+11	; 0x0b
    2c0c:	ce 01       	movw	r24, r28
    2c0e:	09 95       	icall
    2c10:	9c 01       	movw	r18, r24
    2c12:	97 ff       	sbrs	r25, 7
    2c14:	0a c0       	rjmp	.+20     	; 0x2c2a <fgetc+0x70>
    2c16:	9b 81       	ldd	r25, Y+3	; 0x03
    2c18:	2f 5f       	subi	r18, 0xFF	; 255
    2c1a:	3f 4f       	sbci	r19, 0xFF	; 255
    2c1c:	11 f0       	breq	.+4      	; 0x2c22 <fgetc+0x68>
    2c1e:	80 e2       	ldi	r24, 0x20	; 32
    2c20:	01 c0       	rjmp	.+2      	; 0x2c24 <fgetc+0x6a>
    2c22:	80 e1       	ldi	r24, 0x10	; 16
    2c24:	89 2b       	or	r24, r25
    2c26:	8b 83       	std	Y+3, r24	; 0x03
    2c28:	e8 cf       	rjmp	.-48     	; 0x2bfa <fgetc+0x40>
    2c2a:	8e 81       	ldd	r24, Y+6	; 0x06
    2c2c:	9f 81       	ldd	r25, Y+7	; 0x07
    2c2e:	01 96       	adiw	r24, 0x01	; 1
    2c30:	9f 83       	std	Y+7, r25	; 0x07
    2c32:	8e 83       	std	Y+6, r24	; 0x06
    2c34:	30 e0       	ldi	r19, 0x00	; 0
    2c36:	c9 01       	movw	r24, r18
    2c38:	df 91       	pop	r29
    2c3a:	cf 91       	pop	r28
    2c3c:	08 95       	ret

00002c3e <ungetc>:
    2c3e:	9c 01       	movw	r18, r24
    2c40:	fb 01       	movw	r30, r22
    2c42:	83 81       	ldd	r24, Z+3	; 0x03
    2c44:	80 ff       	sbrs	r24, 0
    2c46:	11 c0       	rjmp	.+34     	; 0x2c6a <ungetc+0x2c>
    2c48:	86 fd       	sbrc	r24, 6
    2c4a:	0f c0       	rjmp	.+30     	; 0x2c6a <ungetc+0x2c>
    2c4c:	9f ef       	ldi	r25, 0xFF	; 255
    2c4e:	2f 3f       	cpi	r18, 0xFF	; 255
    2c50:	39 07       	cpc	r19, r25
    2c52:	59 f0       	breq	.+22     	; 0x2c6a <ungetc+0x2c>
    2c54:	22 83       	std	Z+2, r18	; 0x02
    2c56:	80 64       	ori	r24, 0x40	; 64
    2c58:	8f 7d       	andi	r24, 0xDF	; 223
    2c5a:	83 83       	std	Z+3, r24	; 0x03
    2c5c:	86 81       	ldd	r24, Z+6	; 0x06
    2c5e:	97 81       	ldd	r25, Z+7	; 0x07
    2c60:	01 97       	sbiw	r24, 0x01	; 1
    2c62:	97 83       	std	Z+7, r25	; 0x07
    2c64:	86 83       	std	Z+6, r24	; 0x06
    2c66:	30 e0       	ldi	r19, 0x00	; 0
    2c68:	02 c0       	rjmp	.+4      	; 0x2c6e <ungetc+0x30>
    2c6a:	2f ef       	ldi	r18, 0xFF	; 255
    2c6c:	3f ef       	ldi	r19, 0xFF	; 255
    2c6e:	c9 01       	movw	r24, r18
    2c70:	08 95       	ret

00002c72 <__ultoa_invert>:
    2c72:	fa 01       	movw	r30, r20
    2c74:	aa 27       	eor	r26, r26
    2c76:	28 30       	cpi	r18, 0x08	; 8
    2c78:	51 f1       	breq	.+84     	; 0x2cce <__ultoa_invert+0x5c>
    2c7a:	20 31       	cpi	r18, 0x10	; 16
    2c7c:	81 f1       	breq	.+96     	; 0x2cde <__ultoa_invert+0x6c>
    2c7e:	e8 94       	clt
    2c80:	6f 93       	push	r22
    2c82:	6e 7f       	andi	r22, 0xFE	; 254
    2c84:	6e 5f       	subi	r22, 0xFE	; 254
    2c86:	7f 4f       	sbci	r23, 0xFF	; 255
    2c88:	8f 4f       	sbci	r24, 0xFF	; 255
    2c8a:	9f 4f       	sbci	r25, 0xFF	; 255
    2c8c:	af 4f       	sbci	r26, 0xFF	; 255
    2c8e:	b1 e0       	ldi	r27, 0x01	; 1
    2c90:	3e d0       	rcall	.+124    	; 0x2d0e <__ultoa_invert+0x9c>
    2c92:	b4 e0       	ldi	r27, 0x04	; 4
    2c94:	3c d0       	rcall	.+120    	; 0x2d0e <__ultoa_invert+0x9c>
    2c96:	67 0f       	add	r22, r23
    2c98:	78 1f       	adc	r23, r24
    2c9a:	89 1f       	adc	r24, r25
    2c9c:	9a 1f       	adc	r25, r26
    2c9e:	a1 1d       	adc	r26, r1
    2ca0:	68 0f       	add	r22, r24
    2ca2:	79 1f       	adc	r23, r25
    2ca4:	8a 1f       	adc	r24, r26
    2ca6:	91 1d       	adc	r25, r1
    2ca8:	a1 1d       	adc	r26, r1
    2caa:	6a 0f       	add	r22, r26
    2cac:	71 1d       	adc	r23, r1
    2cae:	81 1d       	adc	r24, r1
    2cb0:	91 1d       	adc	r25, r1
    2cb2:	a1 1d       	adc	r26, r1
    2cb4:	20 d0       	rcall	.+64     	; 0x2cf6 <__ultoa_invert+0x84>
    2cb6:	09 f4       	brne	.+2      	; 0x2cba <__ultoa_invert+0x48>
    2cb8:	68 94       	set
    2cba:	3f 91       	pop	r19
    2cbc:	2a e0       	ldi	r18, 0x0A	; 10
    2cbe:	26 9f       	mul	r18, r22
    2cc0:	11 24       	eor	r1, r1
    2cc2:	30 19       	sub	r19, r0
    2cc4:	30 5d       	subi	r19, 0xD0	; 208
    2cc6:	31 93       	st	Z+, r19
    2cc8:	de f6       	brtc	.-74     	; 0x2c80 <__ultoa_invert+0xe>
    2cca:	cf 01       	movw	r24, r30
    2ccc:	08 95       	ret
    2cce:	46 2f       	mov	r20, r22
    2cd0:	47 70       	andi	r20, 0x07	; 7
    2cd2:	40 5d       	subi	r20, 0xD0	; 208
    2cd4:	41 93       	st	Z+, r20
    2cd6:	b3 e0       	ldi	r27, 0x03	; 3
    2cd8:	0f d0       	rcall	.+30     	; 0x2cf8 <__ultoa_invert+0x86>
    2cda:	c9 f7       	brne	.-14     	; 0x2cce <__ultoa_invert+0x5c>
    2cdc:	f6 cf       	rjmp	.-20     	; 0x2cca <__ultoa_invert+0x58>
    2cde:	46 2f       	mov	r20, r22
    2ce0:	4f 70       	andi	r20, 0x0F	; 15
    2ce2:	40 5d       	subi	r20, 0xD0	; 208
    2ce4:	4a 33       	cpi	r20, 0x3A	; 58
    2ce6:	18 f0       	brcs	.+6      	; 0x2cee <__ultoa_invert+0x7c>
    2ce8:	49 5d       	subi	r20, 0xD9	; 217
    2cea:	31 fd       	sbrc	r19, 1
    2cec:	40 52       	subi	r20, 0x20	; 32
    2cee:	41 93       	st	Z+, r20
    2cf0:	02 d0       	rcall	.+4      	; 0x2cf6 <__ultoa_invert+0x84>
    2cf2:	a9 f7       	brne	.-22     	; 0x2cde <__ultoa_invert+0x6c>
    2cf4:	ea cf       	rjmp	.-44     	; 0x2cca <__ultoa_invert+0x58>
    2cf6:	b4 e0       	ldi	r27, 0x04	; 4
    2cf8:	a6 95       	lsr	r26
    2cfa:	97 95       	ror	r25
    2cfc:	87 95       	ror	r24
    2cfe:	77 95       	ror	r23
    2d00:	67 95       	ror	r22
    2d02:	ba 95       	dec	r27
    2d04:	c9 f7       	brne	.-14     	; 0x2cf8 <__ultoa_invert+0x86>
    2d06:	00 97       	sbiw	r24, 0x00	; 0
    2d08:	61 05       	cpc	r22, r1
    2d0a:	71 05       	cpc	r23, r1
    2d0c:	08 95       	ret
    2d0e:	9b 01       	movw	r18, r22
    2d10:	ac 01       	movw	r20, r24
    2d12:	0a 2e       	mov	r0, r26
    2d14:	06 94       	lsr	r0
    2d16:	57 95       	ror	r21
    2d18:	47 95       	ror	r20
    2d1a:	37 95       	ror	r19
    2d1c:	27 95       	ror	r18
    2d1e:	ba 95       	dec	r27
    2d20:	c9 f7       	brne	.-14     	; 0x2d14 <__ultoa_invert+0xa2>
    2d22:	62 0f       	add	r22, r18
    2d24:	73 1f       	adc	r23, r19
    2d26:	84 1f       	adc	r24, r20
    2d28:	95 1f       	adc	r25, r21
    2d2a:	a0 1d       	adc	r26, r0
    2d2c:	08 95       	ret

00002d2e <__ctype_isfalse>:
    2d2e:	99 27       	eor	r25, r25
    2d30:	88 27       	eor	r24, r24

00002d32 <__ctype_istrue>:
    2d32:	08 95       	ret

00002d34 <_exit>:
    2d34:	f8 94       	cli

00002d36 <__stop_program>:
    2d36:	ff cf       	rjmp	.-2      	; 0x2d36 <__stop_program>
